
l2cap_core.o:     file format elf64-x86-64


Disassembly of section .text:

0000000000000000 <__l2cap_global_chan_by_addr>:
	}
	return NULL;
}

static struct l2cap_chan *__l2cap_global_chan_by_addr(__le16 psm, bdaddr_t *src)
{
       0:	55                   	push   %rbp
       1:	48 89 e5             	mov    %rsp,%rbp
       4:	41 55                	push   %r13
       6:	41 54                	push   %r12
       8:	53                   	push   %rbx
       9:	48 83 ec 08          	sub    $0x8,%rsp
       d:	e8 00 00 00 00       	callq  12 <__l2cap_global_chan_by_addr+0x12>
	struct l2cap_chan *c;

	list_for_each_entry(c, &chan_list, global_l) {
      12:	48 8b 05 00 00 00 00 	mov    0x0(%rip),%rax        # 19 <__l2cap_global_chan_by_addr+0x19>
{
      19:	49 89 f5             	mov    %rsi,%r13
      1c:	41 89 fc             	mov    %edi,%r12d
	list_for_each_entry(c, &chan_list, global_l) {
      1f:	48 3d 00 00 00 00    	cmp    $0x0,%rax
      25:	48 8d 98 d8 fc ff ff 	lea    -0x328(%rax),%rbx
      2c:	75 18                	jne    46 <__l2cap_global_chan_by_addr+0x46>
      2e:	eb 50                	jmp    80 <__l2cap_global_chan_by_addr+0x80>
      30:	48 8b 83 28 03 00 00 	mov    0x328(%rbx),%rax
      37:	48 3d 00 00 00 00    	cmp    $0x0,%rax
      3d:	48 8d 98 d8 fc ff ff 	lea    -0x328(%rax),%rbx
      44:	74 3a                	je     80 <__l2cap_global_chan_by_addr+0x80>
		if (c->sport == psm && !bacmp(&bt_sk(c->sk)->src, src))
      46:	66 44 39 63 28       	cmp    %r12w,0x28(%rbx)
      4b:	75 e3                	jne    30 <__l2cap_global_chan_by_addr+0x30>
#define BDADDR_LOCAL (&(bdaddr_t) {{0, 0, 0, 0xff, 0xff, 0xff}})

/* Copy, swap, convert BD Address */
static inline int bacmp(bdaddr_t *ba1, bdaddr_t *ba2)
{
	return memcmp(ba1, ba2, sizeof(bdaddr_t));
      4d:	48 8b 03             	mov    (%rbx),%rax
      50:	ba 06 00 00 00       	mov    $0x6,%edx
      55:	4c 89 ee             	mov    %r13,%rsi
      58:	48 8d b8 88 02 00 00 	lea    0x288(%rax),%rdi
      5f:	e8 00 00 00 00       	callq  64 <__l2cap_global_chan_by_addr+0x64>
      64:	85 c0                	test   %eax,%eax
      66:	75 c8                	jne    30 <__l2cap_global_chan_by_addr+0x30>
			return c;
	}
	return NULL;
}
      68:	48 83 c4 08          	add    $0x8,%rsp
      6c:	48 89 d8             	mov    %rbx,%rax
      6f:	5b                   	pop    %rbx
      70:	41 5c                	pop    %r12
      72:	41 5d                	pop    %r13
      74:	5d                   	pop    %rbp
      75:	c3                   	retq   
      76:	66 2e 0f 1f 84 00 00 	nopw   %cs:0x0(%rax,%rax,1)
      7d:	00 00 00 
      80:	48 83 c4 08          	add    $0x8,%rsp
	return NULL;
      84:	31 c0                	xor    %eax,%eax
}
      86:	5b                   	pop    %rbx
      87:	41 5c                	pop    %r12
      89:	41 5d                	pop    %r13
      8b:	5d                   	pop    %rbp
      8c:	c3                   	retq   
      8d:	0f 1f 00             	nopl   (%rax)

0000000000000090 <__l2cap_state_change>:

	return 0;
}

static void __l2cap_state_change(struct l2cap_chan *chan, int state)
{
      90:	55                   	push   %rbp
      91:	48 89 e5             	mov    %rsp,%rbp
      94:	41 54                	push   %r12
      96:	53                   	push   %rbx
      97:	e8 00 00 00 00       	callq  9c <__l2cap_state_change+0xc>
	BT_DBG("chan %p %s -> %s", chan, state_to_string(chan->state),
      9c:	f6 05 00 00 00 00 04 	testb  $0x4,0x0(%rip)        # a3 <__l2cap_state_change+0x13>
{
      a3:	48 89 fb             	mov    %rdi,%rbx
      a6:	41 89 f4             	mov    %esi,%r12d
	BT_DBG("chan %p %s -> %s", chan, state_to_string(chan->state),
      a9:	75 1d                	jne    c8 <__l2cap_state_change+0x38>
						state_to_string(state));

	chan->state = state;
	chan->ops->state_change(chan->data, state);
      ab:	48 8b 83 40 03 00 00 	mov    0x340(%rbx),%rax
	chan->state = state;
      b2:	44 88 63 10          	mov    %r12b,0x10(%rbx)
	chan->ops->state_change(chan->data, state);
      b6:	44 89 e6             	mov    %r12d,%esi
      b9:	48 8b bb 38 03 00 00 	mov    0x338(%rbx),%rdi
      c0:	ff 50 20             	callq  *0x20(%rax)
}
      c3:	5b                   	pop    %rbx
      c4:	41 5c                	pop    %r12
      c6:	5d                   	pop    %rbp
      c7:	c3                   	retq   
      c8:	8d 46 ff             	lea    -0x1(%rsi),%eax
	switch (state) {
      cb:	49 c7 c0 00 00 00 00 	mov    $0x0,%r8
      d2:	83 f8 08             	cmp    $0x8,%eax
      d5:	77 08                	ja     df <__l2cap_state_change+0x4f>
      d7:	4c 8b 04 c5 00 00 00 	mov    0x0(,%rax,8),%r8
      de:	00 
      df:	0f b6 43 10          	movzbl 0x10(%rbx),%eax
      e3:	48 c7 c1 00 00 00 00 	mov    $0x0,%rcx
      ea:	83 e8 01             	sub    $0x1,%eax
      ed:	83 f8 08             	cmp    $0x8,%eax
      f0:	77 08                	ja     fa <__l2cap_state_change+0x6a>
      f2:	48 8b 0c c5 00 00 00 	mov    0x0(,%rax,8),%rcx
      f9:	00 
	BT_DBG("chan %p %s -> %s", chan, state_to_string(chan->state),
      fa:	48 89 da             	mov    %rbx,%rdx
      fd:	48 c7 c6 00 00 00 00 	mov    $0x0,%rsi
     104:	48 c7 c7 00 00 00 00 	mov    $0x0,%rdi
     10b:	31 c0                	xor    %eax,%eax
     10d:	e8 00 00 00 00       	callq  112 <__l2cap_state_change+0x82>
     112:	eb 97                	jmp    ab <__l2cap_state_change+0x1b>
     114:	66 90                	xchg   %ax,%ax
     116:	66 2e 0f 1f 84 00 00 	nopw   %cs:0x0(%rax,%rax,1)
     11d:	00 00 00 

0000000000000120 <l2cap_build_conf_rsp>:

	return ptr - data;
}

static int l2cap_build_conf_rsp(struct l2cap_chan *chan, void *data, u16 result, u16 flags)
{
     120:	55                   	push   %rbp
     121:	48 89 e5             	mov    %rsp,%rbp
     124:	41 55                	push   %r13
     126:	41 54                	push   %r12
     128:	53                   	push   %rbx
     129:	48 83 ec 18          	sub    $0x18,%rsp
     12d:	e8 00 00 00 00       	callq  132 <l2cap_build_conf_rsp+0x12>
	struct l2cap_conf_rsp *rsp = data;
	void *ptr = rsp->data;

	BT_DBG("chan %p", chan);
     132:	f6 05 00 00 00 00 04 	testb  $0x4,0x0(%rip)        # 139 <l2cap_build_conf_rsp+0x19>
{
     139:	49 89 fc             	mov    %rdi,%r12
     13c:	48 89 f3             	mov    %rsi,%rbx
     13f:	41 89 d5             	mov    %edx,%r13d
	BT_DBG("chan %p", chan);
     142:	75 22                	jne    166 <l2cap_build_conf_rsp+0x46>

	rsp->scid   = cpu_to_le16(chan->dcid);
     144:	41 0f b7 44 24 1a    	movzwl 0x1a(%r12),%eax
	rsp->result = cpu_to_le16(result);
     14a:	66 44 89 6b 04       	mov    %r13w,0x4(%rbx)
	rsp->flags  = cpu_to_le16(flags);
     14f:	66 89 4b 02          	mov    %cx,0x2(%rbx)
	rsp->scid   = cpu_to_le16(chan->dcid);
     153:	66 89 03             	mov    %ax,(%rbx)

	return ptr - data;
}
     156:	48 83 c4 18          	add    $0x18,%rsp
     15a:	b8 06 00 00 00       	mov    $0x6,%eax
     15f:	5b                   	pop    %rbx
     160:	41 5c                	pop    %r12
     162:	41 5d                	pop    %r13
     164:	5d                   	pop    %rbp
     165:	c3                   	retq   
	BT_DBG("chan %p", chan);
     166:	48 89 fa             	mov    %rdi,%rdx
     169:	48 c7 c6 00 00 00 00 	mov    $0x0,%rsi
     170:	48 c7 c7 00 00 00 00 	mov    $0x0,%rdi
     177:	31 c0                	xor    %eax,%eax
     179:	89 4d dc             	mov    %ecx,-0x24(%rbp)
     17c:	e8 00 00 00 00       	callq  181 <l2cap_build_conf_rsp+0x61>
     181:	8b 4d dc             	mov    -0x24(%rbp),%ecx
     184:	eb be                	jmp    144 <l2cap_build_conf_rsp+0x24>
     186:	66 2e 0f 1f 84 00 00 	nopw   %cs:0x0(%rax,%rax,1)
     18d:	00 00 00 

0000000000000190 <l2cap_get_chan_by_scid>:
{
     190:	55                   	push   %rbp
     191:	48 89 e5             	mov    %rsp,%rbp
     194:	41 57                	push   %r15
     196:	41 56                	push   %r14
     198:	41 55                	push   %r13
     19a:	41 54                	push   %r12
     19c:	53                   	push   %rbx
     19d:	48 83 ec 08          	sub    $0x8,%rsp
     1a1:	e8 00 00 00 00       	callq  1a6 <l2cap_get_chan_by_scid+0x16>
	mutex_lock(&conn->chan_lock);
     1a6:	4c 8d af 40 01 00 00 	lea    0x140(%rdi),%r13
{
     1ad:	49 89 fe             	mov    %rdi,%r14
     1b0:	41 89 f7             	mov    %esi,%r15d
     1b3:	41 89 f4             	mov    %esi,%r12d
	mutex_lock(&conn->chan_lock);
     1b6:	4c 89 ef             	mov    %r13,%rdi
     1b9:	e8 00 00 00 00       	callq  1be <l2cap_get_chan_by_scid+0x2e>
	list_for_each_entry(c, &conn->chan_l, list) {
     1be:	49 8b 96 30 01 00 00 	mov    0x130(%r14),%rdx
     1c5:	49 8d 86 30 01 00 00 	lea    0x130(%r14),%rax
     1cc:	48 39 d0             	cmp    %rdx,%rax
     1cf:	48 8d 9a e8 fc ff ff 	lea    -0x318(%rdx),%rbx
     1d6:	74 2d                	je     205 <l2cap_get_chan_by_scid+0x75>
		if (c->scid == cid)
     1d8:	66 44 3b ba 04 fd ff 	cmp    -0x2fc(%rdx),%r15w
     1df:	ff 
     1e0:	75 10                	jne    1f2 <l2cap_get_chan_by_scid+0x62>
     1e2:	eb 44                	jmp    228 <l2cap_get_chan_by_scid+0x98>
     1e4:	0f 1f 40 00          	nopl   0x0(%rax)
     1e8:	66 44 3b a2 04 fd ff 	cmp    -0x2fc(%rdx),%r12w
     1ef:	ff 
     1f0:	74 36                	je     228 <l2cap_get_chan_by_scid+0x98>
	list_for_each_entry(c, &conn->chan_l, list) {
     1f2:	48 8b 93 18 03 00 00 	mov    0x318(%rbx),%rdx
     1f9:	48 39 d0             	cmp    %rdx,%rax
     1fc:	48 8d 9a e8 fc ff ff 	lea    -0x318(%rdx),%rbx
     203:	75 e3                	jne    1e8 <l2cap_get_chan_by_scid+0x58>
     205:	31 db                	xor    %ebx,%ebx
	mutex_unlock(&conn->chan_lock);
     207:	4c 89 ef             	mov    %r13,%rdi
     20a:	e8 00 00 00 00       	callq  20f <l2cap_get_chan_by_scid+0x7f>
}
     20f:	48 83 c4 08          	add    $0x8,%rsp
     213:	48 89 d8             	mov    %rbx,%rax
     216:	5b                   	pop    %rbx
     217:	41 5c                	pop    %r12
     219:	41 5d                	pop    %r13
     21b:	41 5e                	pop    %r14
     21d:	41 5f                	pop    %r15
     21f:	5d                   	pop    %rbp
     220:	c3                   	retq   
     221:	0f 1f 80 00 00 00 00 	nopl   0x0(%rax)
	if (c)
     228:	48 85 db             	test   %rbx,%rbx
     22b:	74 d8                	je     205 <l2cap_get_chan_by_scid+0x75>
		kfree(c);
}

static inline void l2cap_chan_lock(struct l2cap_chan *chan)
{
	mutex_lock(&chan->lock);
     22d:	48 8d bb 48 03 00 00 	lea    0x348(%rbx),%rdi
     234:	e8 00 00 00 00       	callq  239 <l2cap_get_chan_by_scid+0xa9>
     239:	eb cc                	jmp    207 <l2cap_get_chan_by_scid+0x77>
     23b:	0f 1f 44 00 00       	nopl   0x0(%rax,%rax,1)

0000000000000240 <l2cap_seq_list_init>:
{
     240:	55                   	push   %rbp
     241:	48 89 e5             	mov    %rsp,%rbp
     244:	41 55                	push   %r13
     246:	41 54                	push   %r12
     248:	53                   	push   %rbx
     249:	48 83 ec 08          	sub    $0x8,%rsp
     24d:	e8 00 00 00 00       	callq  252 <l2cap_seq_list_init+0x12>
	/*
	 * AMD64 says BSRQ won't clobber the dest reg if x==0; Intel64 says the
	 * dest reg is undefined if x==0, but their CPU architect says its
	 * value is written to set it to the same as before.
	 */
	asm("bsrq %1,%0"
     252:	49 c7 c5 ff ff ff ff 	mov    $0xffffffffffffffff,%r13
 * round up to nearest power of two
 */
static inline __attribute__((const))
unsigned long __roundup_pow_of_two(unsigned long n)
{
	return 1UL << fls_long(n - 1);
     259:	bb 01 00 00 00       	mov    $0x1,%ebx
	alloc_size = roundup_pow_of_two(size);
     25e:	0f b7 f6             	movzwl %si,%esi
     261:	4c 89 e9             	mov    %r13,%rcx
{
     264:	49 89 fc             	mov    %rdi,%r12
     267:	48 83 ee 01          	sub    $0x1,%rsi
     26b:	48 0f bd ce          	bsr    %rsi,%rcx
	    : "+r" (bitpos)
	    : "rm" (x));
	return bitpos + 1;
     26f:	83 c1 01             	add    $0x1,%ecx
				return ZERO_SIZE_PTR;

			return kmem_cache_alloc_trace(s, flags, size);
		}
	}
	return __kmalloc(size, flags);
     272:	be d0 00 00 00       	mov    $0xd0,%esi
     277:	48 d3 e3             	shl    %cl,%rbx
	seq_list->list = kmalloc(sizeof(u16) * alloc_size, GFP_KERNEL);
     27a:	48 8d 3c 1b          	lea    (%rbx,%rbx,1),%rdi
     27e:	e8 00 00 00 00       	callq  283 <l2cap_seq_list_init+0x43>
	if (!seq_list->list)
     283:	48 85 c0             	test   %rax,%rax
	seq_list->list = kmalloc(sizeof(u16) * alloc_size, GFP_KERNEL);
     286:	49 89 44 24 08       	mov    %rax,0x8(%r12)
	if (!seq_list->list)
     28b:	74 47                	je     2d4 <l2cap_seq_list_init+0x94>
	seq_list->mask = alloc_size - 1;
     28d:	8d 53 ff             	lea    -0x1(%rbx),%edx
	seq_list->head = L2CAP_SEQ_LIST_CLEAR;
     290:	66 45 89 2c 24       	mov    %r13w,(%r12)
	seq_list->tail = L2CAP_SEQ_LIST_CLEAR;
     295:	66 45 89 6c 24 02    	mov    %r13w,0x2(%r12)
	seq_list->mask = alloc_size - 1;
     29b:	66 41 89 54 24 04    	mov    %dx,0x4(%r12)
	for (i = 0; i < alloc_size; i++)
     2a1:	31 d2                	xor    %edx,%edx
     2a3:	48 85 db             	test   %rbx,%rbx
     2a6:	75 0d                	jne    2b5 <l2cap_seq_list_init+0x75>
     2a8:	eb 1d                	jmp    2c7 <l2cap_seq_list_init+0x87>
     2aa:	66 0f 1f 44 00 00    	nopw   0x0(%rax,%rax,1)
     2b0:	49 8b 44 24 08       	mov    0x8(%r12),%rax
		seq_list->list[i] = L2CAP_SEQ_LIST_CLEAR;
     2b5:	b9 ff ff ff ff       	mov    $0xffffffff,%ecx
     2ba:	66 89 0c 50          	mov    %cx,(%rax,%rdx,2)
	for (i = 0; i < alloc_size; i++)
     2be:	48 83 c2 01          	add    $0x1,%rdx
     2c2:	48 39 da             	cmp    %rbx,%rdx
     2c5:	75 e9                	jne    2b0 <l2cap_seq_list_init+0x70>
	return 0;
     2c7:	31 c0                	xor    %eax,%eax
}
     2c9:	48 83 c4 08          	add    $0x8,%rsp
     2cd:	5b                   	pop    %rbx
     2ce:	41 5c                	pop    %r12
     2d0:	41 5d                	pop    %r13
     2d2:	5d                   	pop    %rbp
     2d3:	c3                   	retq   
		return -ENOMEM;
     2d4:	b8 f4 ff ff ff       	mov    $0xfffffff4,%eax
     2d9:	eb ee                	jmp    2c9 <l2cap_seq_list_init+0x89>
     2db:	0f 1f 44 00 00       	nopl   0x0(%rax,%rax,1)

00000000000002e0 <__l2cap_chan_add>:
{
     2e0:	55                   	push   %rbp
     2e1:	48 89 e5             	mov    %rsp,%rbp
     2e4:	41 54                	push   %r12
     2e6:	53                   	push   %rbx
     2e7:	e8 00 00 00 00       	callq  2ec <__l2cap_chan_add+0xc>
	BT_DBG("conn %p, psm 0x%2.2x, dcid 0x%4.4x", conn,
     2ec:	f6 05 00 00 00 00 04 	testb  $0x4,0x0(%rip)        # 2f3 <__l2cap_chan_add+0x13>
{
     2f3:	49 89 fc             	mov    %rdi,%r12
     2f6:	48 89 f3             	mov    %rsi,%rbx
	BT_DBG("conn %p, psm 0x%2.2x, dcid 0x%4.4x", conn,
     2f9:	0f 85 8a 01 00 00    	jne    489 <__l2cap_chan_add+0x1a9>
	conn->disc_reason = HCI_ERROR_REMOTE_USER_TERM;
     2ff:	41 c6 84 24 b5 00 00 	movb   $0x13,0xb5(%r12)
     306:	00 13 
	switch (chan->chan_type) {
     308:	0f b6 43 25          	movzbl 0x25(%rbx),%eax
	chan->conn = conn;
     30c:	4c 89 63 08          	mov    %r12,0x8(%rbx)
	switch (chan->chan_type) {
     310:	3c 02                	cmp    $0x2,%al
     312:	0f 84 13 01 00 00    	je     42b <__l2cap_chan_add+0x14b>
     318:	3c 03                	cmp    $0x3,%al
     31a:	75 46                	jne    362 <__l2cap_chan_add+0x82>
		if (conn->hcon->type == LE_LINK) {
     31c:	49 8b 04 24          	mov    (%r12),%rax
     320:	80 78 21 80          	cmpb   $0x80,0x21(%rax)
     324:	0f 84 35 01 00 00    	je     45f <__l2cap_chan_add+0x17f>
     32a:	49 8b 94 24 30 01 00 	mov    0x130(%r12),%rdx
     331:	00 
     332:	49 8d b4 24 30 01 00 	lea    0x130(%r12),%rsi
     339:	00 
	list_for_each_entry(c, &conn->chan_l, list) {
     33a:	41 b8 40 00 00 00    	mov    $0x40,%r8d
     340:	48 39 d6             	cmp    %rdx,%rsi
     343:	48 8d ba e8 fc ff ff 	lea    -0x318(%rdx),%rdi
     34a:	0f 85 a4 00 00 00    	jne    3f4 <__l2cap_chan_add+0x114>
			chan->omtu = L2CAP_DEFAULT_MTU;
     350:	41 ba a0 02 00 00    	mov    $0x2a0,%r10d
			chan->scid = l2cap_alloc_cid(conn);
     356:	66 44 89 43 1c       	mov    %r8w,0x1c(%rbx)
			chan->omtu = L2CAP_DEFAULT_MTU;
     35b:	66 44 89 53 20       	mov    %r10w,0x20(%rbx)
     360:	eb 23                	jmp    385 <__l2cap_chan_add+0xa5>
		chan->omtu = L2CAP_DEFAULT_MTU;
     362:	be a0 02 00 00       	mov    $0x2a0,%esi
		chan->scid = L2CAP_CID_SIGNALING;
     367:	ba 01 00 00 00       	mov    $0x1,%edx
		chan->dcid = L2CAP_CID_SIGNALING;
     36c:	b9 01 00 00 00       	mov    $0x1,%ecx
		chan->omtu = L2CAP_DEFAULT_MTU;
     371:	66 89 73 20          	mov    %si,0x20(%rbx)
     375:	49 8d b4 24 30 01 00 	lea    0x130(%r12),%rsi
     37c:	00 
		chan->scid = L2CAP_CID_SIGNALING;
     37d:	66 89 53 1c          	mov    %dx,0x1c(%rbx)
		chan->dcid = L2CAP_CID_SIGNALING;
     381:	66 89 4b 1a          	mov    %cx,0x1a(%rbx)
	chan->local_msdu	= L2CAP_DEFAULT_MAX_SDU_SIZE;
     385:	b8 ff ff ff ff       	mov    $0xffffffff,%eax
	chan->local_id		= L2CAP_BESTEFFORT_ID;
     38a:	c6 83 ce 00 00 00 01 	movb   $0x1,0xce(%rbx)
	chan->local_stype	= L2CAP_SERV_BESTEFFORT;
     391:	c6 83 cf 00 00 00 01 	movb   $0x1,0xcf(%rbx)
	chan->local_msdu	= L2CAP_DEFAULT_MAX_SDU_SIZE;
     398:	66 89 83 d0 00 00 00 	mov    %ax,0xd0(%rbx)
	chan->local_sdu_itime	= L2CAP_DEFAULT_SDU_ITIME;
     39f:	c7 83 d4 00 00 00 ff 	movl   $0xffffffff,0xd4(%rbx)
     3a6:	ff ff ff 
	chan->local_acc_lat	= L2CAP_DEFAULT_ACC_LAT;
     3a9:	c7 83 d8 00 00 00 ff 	movl   $0xffffffff,0xd8(%rbx)
     3b0:	ff ff ff 
	chan->local_flush_to	= L2CAP_DEFAULT_FLUSH_TO;
     3b3:	c7 83 dc 00 00 00 ff 	movl   $0xffff,0xdc(%rbx)
     3ba:	ff 00 00 
 *
 * Atomically increments @v by 1.
 */
static inline void atomic_inc(atomic_t *v)
{
	asm volatile(LOCK_PREFIX "incl %0"
     3bd:	f0 ff 43 14          	lock incl 0x14(%rbx)
 * Insert a new entry after the specified head.
 * This is good for implementing stacks.
 */
static inline void list_add(struct list_head *new, struct list_head *head)
{
	__list_add(new, head, head->next);
     3c1:	49 8b 94 24 30 01 00 	mov    0x130(%r12),%rdx
     3c8:	00 
	list_add(&chan->list, &conn->chan_l);
     3c9:	48 8d bb 18 03 00 00 	lea    0x318(%rbx),%rdi
     3d0:	e8 00 00 00 00       	callq  3d5 <__l2cap_chan_add+0xf5>
}
     3d5:	5b                   	pop    %rbx
     3d6:	41 5c                	pop    %r12
     3d8:	5d                   	pop    %rbp
     3d9:	c3                   	retq   
     3da:	66 0f 1f 44 00 00    	nopw   0x0(%rax,%rax,1)
		if (!__l2cap_get_chan_by_scid(conn, cid))
     3e0:	48 85 c9             	test   %rcx,%rcx
     3e3:	0f 84 67 ff ff ff    	je     350 <__l2cap_chan_add+0x70>
	for (; cid < L2CAP_CID_DYN_END; cid++) {
     3e9:	41 83 c0 01          	add    $0x1,%r8d
     3ed:	66 41 83 f8 ff       	cmp    $0xffff,%r8w
     3f2:	74 63                	je     457 <__l2cap_chan_add+0x177>
		if (c->scid == cid)
     3f4:	66 44 39 82 04 fd ff 	cmp    %r8w,-0x2fc(%rdx)
     3fb:	ff 
	list_for_each_entry(c, &conn->chan_l, list) {
     3fc:	48 89 f9             	mov    %rdi,%rcx
		if (c->scid == cid)
     3ff:	74 df                	je     3e0 <__l2cap_chan_add+0x100>
     401:	0f 1f 80 00 00 00 00 	nopl   0x0(%rax)
	list_for_each_entry(c, &conn->chan_l, list) {
     408:	48 8b 81 18 03 00 00 	mov    0x318(%rcx),%rax
     40f:	48 39 c6             	cmp    %rax,%rsi
     412:	48 8d 88 e8 fc ff ff 	lea    -0x318(%rax),%rcx
     419:	0f 84 31 ff ff ff    	je     350 <__l2cap_chan_add+0x70>
		if (c->scid == cid)
     41f:	66 44 39 80 04 fd ff 	cmp    %r8w,-0x2fc(%rax)
     426:	ff 
     427:	75 df                	jne    408 <__l2cap_chan_add+0x128>
     429:	eb b5                	jmp    3e0 <__l2cap_chan_add+0x100>
		chan->scid = L2CAP_CID_CONN_LESS;
     42b:	bf 02 00 00 00       	mov    $0x2,%edi
		chan->dcid = L2CAP_CID_CONN_LESS;
     430:	41 b8 02 00 00 00    	mov    $0x2,%r8d
		chan->omtu = L2CAP_DEFAULT_MTU;
     436:	41 b9 a0 02 00 00    	mov    $0x2a0,%r9d
		chan->scid = L2CAP_CID_CONN_LESS;
     43c:	66 89 7b 1c          	mov    %di,0x1c(%rbx)
		chan->dcid = L2CAP_CID_CONN_LESS;
     440:	66 44 89 43 1a       	mov    %r8w,0x1a(%rbx)
     445:	49 8d b4 24 30 01 00 	lea    0x130(%r12),%rsi
     44c:	00 
		chan->omtu = L2CAP_DEFAULT_MTU;
     44d:	66 44 89 4b 20       	mov    %r9w,0x20(%rbx)
		break;
     452:	e9 2e ff ff ff       	jmpq   385 <__l2cap_chan_add+0xa5>
	return 0;
     457:	45 31 c0             	xor    %r8d,%r8d
     45a:	e9 f1 fe ff ff       	jmpq   350 <__l2cap_chan_add+0x70>
			chan->scid = L2CAP_CID_LE_DATA;
     45f:	b8 04 00 00 00       	mov    $0x4,%eax
			chan->omtu = L2CAP_LE_DEFAULT_MTU;
     464:	41 bb 17 00 00 00    	mov    $0x17,%r11d
     46a:	49 8d b4 24 30 01 00 	lea    0x130(%r12),%rsi
     471:	00 
			chan->scid = L2CAP_CID_LE_DATA;
     472:	66 89 43 1c          	mov    %ax,0x1c(%rbx)
			chan->dcid = L2CAP_CID_LE_DATA;
     476:	b8 04 00 00 00       	mov    $0x4,%eax
			chan->omtu = L2CAP_LE_DEFAULT_MTU;
     47b:	66 44 89 5b 20       	mov    %r11w,0x20(%rbx)
			chan->dcid = L2CAP_CID_LE_DATA;
     480:	66 89 43 1a          	mov    %ax,0x1a(%rbx)
     484:	e9 fc fe ff ff       	jmpq   385 <__l2cap_chan_add+0xa5>
	BT_DBG("conn %p, psm 0x%2.2x, dcid 0x%4.4x", conn,
     489:	0f b7 4e 18          	movzwl 0x18(%rsi),%ecx
     48d:	44 0f b7 46 1a       	movzwl 0x1a(%rsi),%r8d
     492:	48 89 fa             	mov    %rdi,%rdx
     495:	48 c7 c6 00 00 00 00 	mov    $0x0,%rsi
     49c:	48 c7 c7 00 00 00 00 	mov    $0x0,%rdi
     4a3:	31 c0                	xor    %eax,%eax
     4a5:	e8 00 00 00 00       	callq  4aa <__l2cap_chan_add+0x1ca>
     4aa:	e9 50 fe ff ff       	jmpq   2ff <__l2cap_chan_add+0x1f>
     4af:	90                   	nop

00000000000004b0 <l2cap_get_ident>:
{
     4b0:	55                   	push   %rbp
     4b1:	48 89 e5             	mov    %rsp,%rbp
     4b4:	53                   	push   %rbx
     4b5:	48 83 ec 08          	sub    $0x8,%rsp
     4b9:	e8 00 00 00 00       	callq  4be <l2cap_get_ident+0xe>
     4be:	48 89 fb             	mov    %rdi,%rbx
	raw_spin_lock_init(&(_lock)->rlock);		\
} while (0)

static inline void spin_lock(spinlock_t *lock)
{
	raw_spin_lock(&lock->rlock);
     4c1:	48 8d bf a0 00 00 00 	lea    0xa0(%rdi),%rdi
     4c8:	e8 00 00 00 00       	callq  4cd <l2cap_get_ident+0x1d>
	if (++conn->tx_ident > 128)
     4cd:	0f b6 83 b4 00 00 00 	movzbl 0xb4(%rbx),%eax
     4d4:	83 c0 01             	add    $0x1,%eax
     4d7:	3c 80                	cmp    $0x80,%al
     4d9:	76 1d                	jbe    4f8 <l2cap_get_ident+0x48>
		conn->tx_ident = 1;
     4db:	c6 83 b4 00 00 00 01 	movb   $0x1,0xb4(%rbx)
     4e2:	b8 01 00 00 00       	mov    $0x1,%eax
	return cmpxchg(&lock->head_tail, old.head_tail, new.head_tail) == old.head_tail;
}

static __always_inline void __ticket_spin_unlock(arch_spinlock_t *lock)
{
	__add(&lock->tickets.head, 1, UNLOCK_LOCK_PREFIX);
     4e7:	80 83 a0 00 00 00 01 	addb   $0x1,0xa0(%rbx)
}
     4ee:	48 83 c4 08          	add    $0x8,%rsp
     4f2:	5b                   	pop    %rbx
     4f3:	5d                   	pop    %rbp
     4f4:	c3                   	retq   
     4f5:	0f 1f 00             	nopl   (%rax)
	if (++conn->tx_ident > 128)
     4f8:	88 83 b4 00 00 00    	mov    %al,0xb4(%rbx)
     4fe:	eb e7                	jmp    4e7 <l2cap_get_ident+0x37>

0000000000000500 <l2cap_do_send>:
{
     500:	55                   	push   %rbp
     501:	48 89 e5             	mov    %rsp,%rbp
     504:	41 55                	push   %r13
     506:	41 54                	push   %r12
     508:	53                   	push   %rbx
     509:	48 83 ec 08          	sub    $0x8,%rsp
     50d:	e8 00 00 00 00       	callq  512 <l2cap_do_send+0x12>
	BT_DBG("chan %p, skb %p len %d priority %u", chan, skb, skb->len,
     512:	f6 05 00 00 00 00 04 	testb  $0x4,0x0(%rip)        # 519 <l2cap_do_send+0x19>
	struct hci_conn *hcon = chan->conn->hcon;
     519:	48 8b 47 08          	mov    0x8(%rdi),%rax
{
     51d:	48 89 fb             	mov    %rdi,%rbx
     520:	49 89 f4             	mov    %rsi,%r12
	struct hci_conn *hcon = chan->conn->hcon;
     523:	4c 8b 28             	mov    (%rax),%r13
	BT_DBG("chan %p, skb %p len %d priority %u", chan, skb, skb->len,
     526:	75 55                	jne    57d <l2cap_do_send+0x7d>
		(addr[nr / BITS_PER_LONG])) != 0;
     528:	48 8b 83 90 00 00 00 	mov    0x90(%rbx),%rax
     52f:	ba 02 00 00 00       	mov    $0x2,%edx
	if (!test_bit(FLAG_FLUSHABLE, &chan->flags) &&
     534:	a8 08                	test   $0x8,%al
     536:	75 18                	jne    550 <l2cap_do_send+0x50>
					lmp_no_flush_capable(hcon->hdev))
     538:	49 8b 85 18 04 00 00 	mov    0x418(%r13),%rax
     53f:	0f b6 80 47 02 00 00 	movzbl 0x247(%rax),%eax
     546:	83 e0 40             	and    $0x40,%eax
	if (!test_bit(FLAG_FLUSHABLE, &chan->flags) &&
     549:	3c 01                	cmp    $0x1,%al
     54b:	19 d2                	sbb    %edx,%edx
     54d:	83 e2 02             	and    $0x2,%edx
     550:	48 8b 83 90 00 00 00 	mov    0x90(%rbx),%rax
	hci_send_acl(chan->conn->hchan, skb, flags);
     557:	4c 89 e6             	mov    %r12,%rsi
     55a:	48 d1 e8             	shr    %rax
     55d:	83 e0 01             	and    $0x1,%eax
	bt_cb(skb)->force_active = test_bit(FLAG_FORCE_ACTIVE, &chan->flags);
     560:	41 88 44 24 2c       	mov    %al,0x2c(%r12)
	hci_send_acl(chan->conn->hchan, skb, flags);
     565:	48 8b 43 08          	mov    0x8(%rbx),%rax
     569:	48 8b 78 08          	mov    0x8(%rax),%rdi
     56d:	e8 00 00 00 00       	callq  572 <l2cap_do_send+0x72>
}
     572:	48 83 c4 08          	add    $0x8,%rsp
     576:	5b                   	pop    %rbx
     577:	41 5c                	pop    %r12
     579:	41 5d                	pop    %r13
     57b:	5d                   	pop    %rbp
     57c:	c3                   	retq   
	BT_DBG("chan %p, skb %p len %d priority %u", chan, skb, skb->len,
     57d:	44 8b 4e 78          	mov    0x78(%rsi),%r9d
     581:	44 8b 46 68          	mov    0x68(%rsi),%r8d
     585:	48 89 f1             	mov    %rsi,%rcx
     588:	48 89 fa             	mov    %rdi,%rdx
     58b:	48 c7 c6 00 00 00 00 	mov    $0x0,%rsi
     592:	48 c7 c7 00 00 00 00 	mov    $0x0,%rdi
     599:	31 c0                	xor    %eax,%eax
     59b:	e8 00 00 00 00       	callq  5a0 <l2cap_do_send+0xa0>
     5a0:	eb 86                	jmp    528 <l2cap_do_send+0x28>
     5a2:	0f 1f 40 00          	nopl   0x0(%rax)
     5a6:	66 2e 0f 1f 84 00 00 	nopw   %cs:0x0(%rax,%rax,1)
     5ad:	00 00 00 

00000000000005b0 <l2cap_add_conf_opt>:
{
     5b0:	55                   	push   %rbp
     5b1:	48 89 e5             	mov    %rsp,%rbp
     5b4:	41 57                	push   %r15
     5b6:	41 56                	push   %r14
     5b8:	41 55                	push   %r13
     5ba:	41 54                	push   %r12
     5bc:	53                   	push   %rbx
     5bd:	48 83 ec 18          	sub    $0x18,%rsp
     5c1:	e8 00 00 00 00       	callq  5c6 <l2cap_add_conf_opt+0x16>
	BT_DBG("type 0x%2.2x len %d val 0x%lx", type, len, val);
     5c6:	f6 05 00 00 00 00 04 	testb  $0x4,0x0(%rip)        # 5cd <l2cap_add_conf_opt+0x1d>
	struct l2cap_conf_opt *opt = *ptr;
     5cd:	4c 8b 2f             	mov    (%rdi),%r13
{
     5d0:	49 89 fc             	mov    %rdi,%r12
     5d3:	41 89 f1             	mov    %esi,%r9d
     5d6:	89 d3                	mov    %edx,%ebx
     5d8:	49 89 cf             	mov    %rcx,%r15
     5db:	41 89 d2             	mov    %edx,%r10d
	BT_DBG("type 0x%2.2x len %d val 0x%lx", type, len, val);
     5de:	75 67                	jne    647 <l2cap_add_conf_opt+0x97>
     5e0:	44 0f b6 f2          	movzbl %dl,%r14d
	switch (len) {
     5e4:	80 fb 02             	cmp    $0x2,%bl
	opt->type = type;
     5e7:	45 88 4d 00          	mov    %r9b,0x0(%r13)
	opt->len  = len;
     5eb:	41 88 5d 01          	mov    %bl,0x1(%r13)
	switch (len) {
     5ef:	74 4f                	je     640 <l2cap_add_conf_opt+0x90>
     5f1:	80 fb 04             	cmp    $0x4,%bl
     5f4:	74 3a                	je     630 <l2cap_add_conf_opt+0x80>
     5f6:	80 fb 01             	cmp    $0x1,%bl
     5f9:	74 2d                	je     628 <l2cap_add_conf_opt+0x78>
		memcpy(opt->val, (void *) val, len);
     5fb:	49 8d 7d 02          	lea    0x2(%r13),%rdi
     5ff:	41 0f b6 d2          	movzbl %r10b,%edx
     603:	4c 89 fe             	mov    %r15,%rsi
     606:	e8 00 00 00 00       	callq  60b <l2cap_add_conf_opt+0x5b>
	*ptr += L2CAP_CONF_OPT_SIZE + len;
     60b:	41 83 c6 02          	add    $0x2,%r14d
     60f:	4d 63 f6             	movslq %r14d,%r14
     612:	4d 01 34 24          	add    %r14,(%r12)
}
     616:	48 83 c4 18          	add    $0x18,%rsp
     61a:	5b                   	pop    %rbx
     61b:	41 5c                	pop    %r12
     61d:	41 5d                	pop    %r13
     61f:	41 5e                	pop    %r14
     621:	41 5f                	pop    %r15
     623:	5d                   	pop    %rbp
     624:	c3                   	retq   
     625:	0f 1f 00             	nopl   (%rax)
		*((u8 *) opt->val)  = val;
     628:	45 88 7d 02          	mov    %r15b,0x2(%r13)
		break;
     62c:	eb dd                	jmp    60b <l2cap_add_conf_opt+0x5b>
     62e:	66 90                	xchg   %ax,%ax
		put_unaligned_le32(val, opt->val);
     630:	45 89 7d 02          	mov    %r15d,0x2(%r13)
     634:	eb d5                	jmp    60b <l2cap_add_conf_opt+0x5b>
     636:	66 2e 0f 1f 84 00 00 	nopw   %cs:0x0(%rax,%rax,1)
     63d:	00 00 00 
		put_unaligned_le16(val, opt->val);
     640:	66 45 89 7d 02       	mov    %r15w,0x2(%r13)
     645:	eb c4                	jmp    60b <l2cap_add_conf_opt+0x5b>
	BT_DBG("type 0x%2.2x len %d val 0x%lx", type, len, val);
     647:	44 0f b6 f2          	movzbl %dl,%r14d
     64b:	89 75 cc             	mov    %esi,-0x34(%rbp)
     64e:	40 0f b6 d6          	movzbl %sil,%edx
     652:	49 89 c8             	mov    %rcx,%r8
     655:	48 c7 c6 00 00 00 00 	mov    $0x0,%rsi
     65c:	44 89 f1             	mov    %r14d,%ecx
     65f:	48 c7 c7 00 00 00 00 	mov    $0x0,%rdi
     666:	31 c0                	xor    %eax,%eax
     668:	44 89 55 c8          	mov    %r10d,-0x38(%rbp)
     66c:	e8 00 00 00 00       	callq  671 <l2cap_add_conf_opt+0xc1>
     671:	44 8b 55 c8          	mov    -0x38(%rbp),%r10d
     675:	44 8b 4d cc          	mov    -0x34(%rbp),%r9d
     679:	e9 66 ff ff ff       	jmpq   5e4 <l2cap_add_conf_opt+0x34>
     67e:	66 90                	xchg   %ax,%ax

0000000000000680 <l2cap_add_opt_efs>:
{
     680:	55                   	push   %rbp
     681:	48 89 e5             	mov    %rsp,%rbp
     684:	48 83 ec 10          	sub    $0x10,%rsp
     688:	e8 00 00 00 00       	callq  68d <l2cap_add_opt_efs+0xd>
	switch (chan->mode) {
     68d:	0f b6 46 24          	movzbl 0x24(%rsi),%eax
     691:	3c 03                	cmp    $0x3,%al
     693:	74 4b                	je     6e0 <l2cap_add_opt_efs+0x60>
     695:	3c 04                	cmp    $0x4,%al
     697:	75 3d                	jne    6d6 <l2cap_add_opt_efs+0x56>
		efs.msdu	= cpu_to_le16(chan->local_msdu);
     699:	0f b7 86 d0 00 00 00 	movzwl 0xd0(%rsi),%eax
		efs.id		= 1;
     6a0:	c6 45 f0 01          	movb   $0x1,-0x10(%rbp)
		efs.stype	= L2CAP_SERV_BESTEFFORT;
     6a4:	c6 45 f1 01          	movb   $0x1,-0xf(%rbp)
		efs.acc_lat	= 0;
     6a8:	c7 45 f8 00 00 00 00 	movl   $0x0,-0x8(%rbp)
		efs.flush_to	= 0;
     6af:	c7 45 fc 00 00 00 00 	movl   $0x0,-0x4(%rbp)
		efs.msdu	= cpu_to_le16(chan->local_msdu);
     6b6:	66 89 45 f2          	mov    %ax,-0xe(%rbp)
		efs.sdu_itime	= cpu_to_le32(chan->local_sdu_itime);
     6ba:	8b 86 d4 00 00 00    	mov    0xd4(%rsi),%eax
     6c0:	89 45 f4             	mov    %eax,-0xc(%rbp)
	l2cap_add_conf_opt(ptr, L2CAP_CONF_EFS, sizeof(efs),
     6c3:	48 8d 4d f0          	lea    -0x10(%rbp),%rcx
     6c7:	ba 10 00 00 00       	mov    $0x10,%edx
     6cc:	be 06 00 00 00       	mov    $0x6,%esi
     6d1:	e8 da fe ff ff       	callq  5b0 <l2cap_add_conf_opt>
}
     6d6:	c9                   	leaveq 
     6d7:	c3                   	retq   
     6d8:	0f 1f 84 00 00 00 00 	nopl   0x0(%rax,%rax,1)
     6df:	00 
		efs.id		= chan->local_id;
     6e0:	0f b6 86 ce 00 00 00 	movzbl 0xce(%rsi),%eax
		efs.acc_lat	= cpu_to_le32(L2CAP_DEFAULT_ACC_LAT);
     6e7:	c7 45 f8 ff ff ff ff 	movl   $0xffffffff,-0x8(%rbp)
		efs.flush_to	= cpu_to_le32(L2CAP_DEFAULT_FLUSH_TO);
     6ee:	c7 45 fc ff ff 00 00 	movl   $0xffff,-0x4(%rbp)
		efs.id		= chan->local_id;
     6f5:	88 45 f0             	mov    %al,-0x10(%rbp)
		efs.stype	= chan->local_stype;
     6f8:	0f b6 86 cf 00 00 00 	movzbl 0xcf(%rsi),%eax
     6ff:	88 45 f1             	mov    %al,-0xf(%rbp)
		efs.msdu	= cpu_to_le16(chan->local_msdu);
     702:	0f b7 86 d0 00 00 00 	movzwl 0xd0(%rsi),%eax
     709:	66 89 45 f2          	mov    %ax,-0xe(%rbp)
		efs.sdu_itime	= cpu_to_le32(chan->local_sdu_itime);
     70d:	8b 86 d4 00 00 00    	mov    0xd4(%rsi),%eax
     713:	89 45 f4             	mov    %eax,-0xc(%rbp)
		break;
     716:	eb ab                	jmp    6c3 <l2cap_add_opt_efs+0x43>
     718:	0f 1f 84 00 00 00 00 	nopl   0x0(%rax,%rax,1)
     71f:	00 

0000000000000720 <l2cap_state_change>:
{
     720:	55                   	push   %rbp
     721:	48 89 e5             	mov    %rsp,%rbp
     724:	41 55                	push   %r13
     726:	41 54                	push   %r12
     728:	53                   	push   %rbx
     729:	48 83 ec 08          	sub    $0x8,%rsp
     72d:	e8 00 00 00 00       	callq  732 <l2cap_state_change+0x12>
	struct sock *sk = chan->sk;
     732:	48 8b 1f             	mov    (%rdi),%rbx
{
     735:	49 89 fc             	mov    %rdi,%r12
     738:	41 89 f5             	mov    %esi,%r13d

extern void lock_sock_nested(struct sock *sk, int subclass);

static inline void lock_sock(struct sock *sk)
{
	lock_sock_nested(sk, 0);
     73b:	31 f6                	xor    %esi,%esi
     73d:	48 89 df             	mov    %rbx,%rdi
     740:	e8 00 00 00 00       	callq  745 <l2cap_state_change+0x25>
	__l2cap_state_change(chan, state);
     745:	44 89 ee             	mov    %r13d,%esi
     748:	4c 89 e7             	mov    %r12,%rdi
     74b:	e8 40 f9 ff ff       	callq  90 <__l2cap_state_change>
	release_sock(sk);
     750:	48 89 df             	mov    %rbx,%rdi
     753:	e8 00 00 00 00       	callq  758 <l2cap_state_change+0x38>
}
     758:	48 83 c4 08          	add    $0x8,%rsp
     75c:	5b                   	pop    %rbx
     75d:	41 5c                	pop    %r12
     75f:	41 5d                	pop    %r13
     761:	5d                   	pop    %rbp
     762:	c3                   	retq   
     763:	0f 1f 00             	nopl   (%rax)
     766:	66 2e 0f 1f 84 00 00 	nopw   %cs:0x0(%rax,%rax,1)
     76d:	00 00 00 

0000000000000770 <l2cap_global_chan_by_scid>:
{
     770:	55                   	push   %rbp
     771:	48 89 e5             	mov    %rsp,%rbp
     774:	41 57                	push   %r15
     776:	41 56                	push   %r14
     778:	41 55                	push   %r13
     77a:	41 54                	push   %r12
     77c:	53                   	push   %rbx
     77d:	48 83 ec 38          	sub    $0x38,%rsp
     781:	e8 00 00 00 00       	callq  786 <l2cap_global_chan_by_scid+0x16>
     786:	41 89 fd             	mov    %edi,%r13d
	read_lock(&chan_list_lock);
     789:	48 c7 c7 00 00 00 00 	mov    $0x0,%rdi
{
     790:	48 89 55 a8          	mov    %rdx,-0x58(%rbp)
     794:	48 89 4d a0          	mov    %rcx,-0x60(%rbp)
     798:	89 f3                	mov    %esi,%ebx
	read_lock(&chan_list_lock);
     79a:	e8 00 00 00 00       	callq  79f <l2cap_global_chan_by_scid+0x2f>
	list_for_each_entry(c, &chan_list, global_l) {
     79f:	48 8b 05 00 00 00 00 	mov    0x0(%rip),%rax        # 7a6 <l2cap_global_chan_by_scid+0x36>
	struct l2cap_chan *c, *c1 = NULL;
     7a6:	48 c7 45 b8 00 00 00 	movq   $0x0,-0x48(%rbp)
     7ad:	00 
	list_for_each_entry(c, &chan_list, global_l) {
     7ae:	48 3d 00 00 00 00    	cmp    $0x0,%rax
     7b4:	4c 8d b0 d8 fc ff ff 	lea    -0x328(%rax),%r14
     7bb:	75 2f                	jne    7ec <l2cap_global_chan_by_scid+0x7c>
     7bd:	e9 1e 01 00 00       	jmpq   8e0 <l2cap_global_chan_by_scid+0x170>
     7c2:	66 0f 1f 44 00 00    	nopw   0x0(%rax,%rax,1)
		if (state && c->state != state)
     7c8:	41 0f b6 46 10       	movzbl 0x10(%r14),%eax
     7cd:	44 39 e8             	cmp    %r13d,%eax
     7d0:	74 22                	je     7f4 <l2cap_global_chan_by_scid+0x84>
	list_for_each_entry(c, &chan_list, global_l) {
     7d2:	49 8b 86 28 03 00 00 	mov    0x328(%r14),%rax
     7d9:	48 3d 00 00 00 00    	cmp    $0x0,%rax
     7df:	4c 8d b0 d8 fc ff ff 	lea    -0x328(%rax),%r14
     7e6:	0f 84 f4 00 00 00    	je     8e0 <l2cap_global_chan_by_scid+0x170>
		if (state && c->state != state)
     7ec:	45 85 ed             	test   %r13d,%r13d
		struct sock *sk = c->sk;
     7ef:	4d 8b 26             	mov    (%r14),%r12
		if (state && c->state != state)
     7f2:	75 d4                	jne    7c8 <l2cap_global_chan_by_scid+0x58>
		if (c->scid == cid) {
     7f4:	66 41 39 5e 1c       	cmp    %bx,0x1c(%r14)
     7f9:	75 d7                	jne    7d2 <l2cap_global_chan_by_scid+0x62>
			src_match = !bacmp(&bt_sk(sk)->src, src);
     7fb:	4d 8d bc 24 88 02 00 	lea    0x288(%r12),%r15
     802:	00 
	return memcmp(ba1, ba2, sizeof(bdaddr_t));
     803:	48 8b 75 a8          	mov    -0x58(%rbp),%rsi
     807:	ba 06 00 00 00       	mov    $0x6,%edx
     80c:	4c 89 ff             	mov    %r15,%rdi
     80f:	e8 00 00 00 00       	callq  814 <l2cap_global_chan_by_scid+0xa4>
     814:	48 8b 75 a0          	mov    -0x60(%rbp),%rsi
     818:	85 c0                	test   %eax,%eax
     81a:	ba 06 00 00 00       	mov    $0x6,%edx
     81f:	0f 94 45 b7          	sete   -0x49(%rbp)
			dst_match = !bacmp(&bt_sk(sk)->dst, dst);
     823:	49 81 c4 8e 02 00 00 	add    $0x28e,%r12
     82a:	4c 89 e7             	mov    %r12,%rdi
     82d:	e8 00 00 00 00       	callq  832 <l2cap_global_chan_by_scid+0xc2>
     832:	85 c0                	test   %eax,%eax
			if (src_match && dst_match) {
     834:	0f 94 45 b6          	sete   -0x4a(%rbp)
     838:	0f 84 bc 00 00 00    	je     8fa <l2cap_global_chan_by_scid+0x18a>
     83e:	48 8d 75 c4          	lea    -0x3c(%rbp),%rsi
     842:	4c 89 ff             	mov    %r15,%rdi
     845:	ba 06 00 00 00       	mov    $0x6,%edx
			src_any = !bacmp(&bt_sk(sk)->src, BDADDR_ANY);
     84a:	c6 45 c4 00          	movb   $0x0,-0x3c(%rbp)
     84e:	c6 45 c5 00          	movb   $0x0,-0x3b(%rbp)
     852:	c6 45 c6 00          	movb   $0x0,-0x3a(%rbp)
     856:	c6 45 c7 00          	movb   $0x0,-0x39(%rbp)
     85a:	c6 45 c8 00          	movb   $0x0,-0x38(%rbp)
     85e:	c6 45 c9 00          	movb   $0x0,-0x37(%rbp)
     862:	e8 00 00 00 00       	callq  867 <l2cap_global_chan_by_scid+0xf7>
     867:	48 8d 75 ca          	lea    -0x36(%rbp),%rsi
     86b:	ba 06 00 00 00       	mov    $0x6,%edx
     870:	4c 89 e7             	mov    %r12,%rdi
     873:	41 89 c7             	mov    %eax,%r15d
			dst_any = !bacmp(&bt_sk(sk)->dst, BDADDR_ANY);
     876:	c6 45 ca 00          	movb   $0x0,-0x36(%rbp)
     87a:	c6 45 cb 00          	movb   $0x0,-0x35(%rbp)
     87e:	c6 45 cc 00          	movb   $0x0,-0x34(%rbp)
     882:	c6 45 cd 00          	movb   $0x0,-0x33(%rbp)
     886:	c6 45 ce 00          	movb   $0x0,-0x32(%rbp)
     88a:	c6 45 cf 00          	movb   $0x0,-0x31(%rbp)
     88e:	e8 00 00 00 00       	callq  893 <l2cap_global_chan_by_scid+0x123>
     893:	85 c0                	test   %eax,%eax
			if ((src_match && dst_any) || (src_any && dst_match) ||
     895:	0f 94 c0             	sete   %al
     898:	75 06                	jne    8a0 <l2cap_global_chan_by_scid+0x130>
     89a:	80 7d b7 00          	cmpb   $0x0,-0x49(%rbp)
     89e:	75 0e                	jne    8ae <l2cap_global_chan_by_scid+0x13e>
			src_any = !bacmp(&bt_sk(sk)->src, BDADDR_ANY);
     8a0:	45 85 ff             	test   %r15d,%r15d
			if ((src_match && dst_any) || (src_any && dst_match) ||
     8a3:	0f 94 c2             	sete   %dl
     8a6:	75 18                	jne    8c0 <l2cap_global_chan_by_scid+0x150>
     8a8:	80 7d b6 00          	cmpb   $0x0,-0x4a(%rbp)
     8ac:	74 12                	je     8c0 <l2cap_global_chan_by_scid+0x150>
     8ae:	4c 89 75 b8          	mov    %r14,-0x48(%rbp)
     8b2:	e9 1b ff ff ff       	jmpq   7d2 <l2cap_global_chan_by_scid+0x62>
     8b7:	66 0f 1f 84 00 00 00 	nopw   0x0(%rax,%rax,1)
     8be:	00 00 
     8c0:	84 c0                	test   %al,%al
     8c2:	0f 84 0a ff ff ff    	je     7d2 <l2cap_global_chan_by_scid+0x62>
     8c8:	48 8b 45 b8          	mov    -0x48(%rbp),%rax
     8cc:	84 d2                	test   %dl,%dl
     8ce:	49 0f 45 c6          	cmovne %r14,%rax
     8d2:	48 89 45 b8          	mov    %rax,-0x48(%rbp)
     8d6:	e9 f7 fe ff ff       	jmpq   7d2 <l2cap_global_chan_by_scid+0x62>
     8db:	0f 1f 44 00 00       	nopl   0x0(%rax,%rax,1)
	return 0;
}

static inline void arch_read_unlock(arch_rwlock_t *rw)
{
	asm volatile(LOCK_PREFIX READ_LOCK_SIZE(inc) " %0"
     8e0:	f0 ff 05 00 00 00 00 	lock incl 0x0(%rip)        # 8e7 <l2cap_global_chan_by_scid+0x177>
}
     8e7:	48 8b 45 b8          	mov    -0x48(%rbp),%rax
     8eb:	48 83 c4 38          	add    $0x38,%rsp
     8ef:	5b                   	pop    %rbx
     8f0:	41 5c                	pop    %r12
     8f2:	41 5d                	pop    %r13
     8f4:	41 5e                	pop    %r14
     8f6:	41 5f                	pop    %r15
     8f8:	5d                   	pop    %rbp
     8f9:	c3                   	retq   
			if (src_match && dst_match) {
     8fa:	80 7d b7 00          	cmpb   $0x0,-0x49(%rbp)
     8fe:	0f 84 3a ff ff ff    	je     83e <l2cap_global_chan_by_scid+0xce>
     904:	f0 ff 05 00 00 00 00 	lock incl 0x0(%rip)        # 90b <l2cap_global_chan_by_scid+0x19b>
				return c;
     90b:	4c 89 75 b8          	mov    %r14,-0x48(%rbp)
     90f:	eb d6                	jmp    8e7 <l2cap_global_chan_by_scid+0x177>
     911:	0f 1f 44 00 00       	nopl   0x0(%rax,%rax,1)
     916:	66 2e 0f 1f 84 00 00 	nopw   %cs:0x0(%rax,%rax,1)
     91d:	00 00 00 

0000000000000920 <l2cap_global_chan_by_psm>:
{
     920:	55                   	push   %rbp
     921:	48 89 e5             	mov    %rsp,%rbp
     924:	41 57                	push   %r15
     926:	41 56                	push   %r14
     928:	41 55                	push   %r13
     92a:	41 54                	push   %r12
     92c:	53                   	push   %rbx
     92d:	48 83 ec 38          	sub    $0x38,%rsp
     931:	e8 00 00 00 00       	callq  936 <l2cap_global_chan_by_psm+0x16>
     936:	41 89 fd             	mov    %edi,%r13d
	read_lock(&chan_list_lock);
     939:	48 c7 c7 00 00 00 00 	mov    $0x0,%rdi
{
     940:	48 89 55 a8          	mov    %rdx,-0x58(%rbp)
     944:	48 89 4d a0          	mov    %rcx,-0x60(%rbp)
     948:	89 f3                	mov    %esi,%ebx
	read_lock(&chan_list_lock);
     94a:	e8 00 00 00 00       	callq  94f <l2cap_global_chan_by_psm+0x2f>
	list_for_each_entry(c, &chan_list, global_l) {
     94f:	48 8b 05 00 00 00 00 	mov    0x0(%rip),%rax        # 956 <l2cap_global_chan_by_psm+0x36>
	struct l2cap_chan *c, *c1 = NULL;
     956:	48 c7 45 b8 00 00 00 	movq   $0x0,-0x48(%rbp)
     95d:	00 
	list_for_each_entry(c, &chan_list, global_l) {
     95e:	48 3d 00 00 00 00    	cmp    $0x0,%rax
     964:	4c 8d b0 d8 fc ff ff 	lea    -0x328(%rax),%r14
     96b:	75 2f                	jne    99c <l2cap_global_chan_by_psm+0x7c>
     96d:	e9 1e 01 00 00       	jmpq   a90 <l2cap_global_chan_by_psm+0x170>
     972:	66 0f 1f 44 00 00    	nopw   0x0(%rax,%rax,1)
		if (state && c->state != state)
     978:	41 0f b6 46 10       	movzbl 0x10(%r14),%eax
     97d:	44 39 e8             	cmp    %r13d,%eax
     980:	74 22                	je     9a4 <l2cap_global_chan_by_psm+0x84>
	list_for_each_entry(c, &chan_list, global_l) {
     982:	49 8b 86 28 03 00 00 	mov    0x328(%r14),%rax
     989:	48 3d 00 00 00 00    	cmp    $0x0,%rax
     98f:	4c 8d b0 d8 fc ff ff 	lea    -0x328(%rax),%r14
     996:	0f 84 f4 00 00 00    	je     a90 <l2cap_global_chan_by_psm+0x170>
		if (state && c->state != state)
     99c:	45 85 ed             	test   %r13d,%r13d
		struct sock *sk = c->sk;
     99f:	4d 8b 26             	mov    (%r14),%r12
		if (state && c->state != state)
     9a2:	75 d4                	jne    978 <l2cap_global_chan_by_psm+0x58>
		if (c->psm == psm) {
     9a4:	66 41 39 5e 18       	cmp    %bx,0x18(%r14)
     9a9:	75 d7                	jne    982 <l2cap_global_chan_by_psm+0x62>
			src_match = !bacmp(&bt_sk(sk)->src, src);
     9ab:	4d 8d bc 24 88 02 00 	lea    0x288(%r12),%r15
     9b2:	00 
     9b3:	48 8b 75 a8          	mov    -0x58(%rbp),%rsi
     9b7:	ba 06 00 00 00       	mov    $0x6,%edx
     9bc:	4c 89 ff             	mov    %r15,%rdi
     9bf:	e8 00 00 00 00       	callq  9c4 <l2cap_global_chan_by_psm+0xa4>
     9c4:	48 8b 75 a0          	mov    -0x60(%rbp),%rsi
     9c8:	85 c0                	test   %eax,%eax
     9ca:	ba 06 00 00 00       	mov    $0x6,%edx
     9cf:	0f 94 45 b7          	sete   -0x49(%rbp)
			dst_match = !bacmp(&bt_sk(sk)->dst, dst);
     9d3:	49 81 c4 8e 02 00 00 	add    $0x28e,%r12
     9da:	4c 89 e7             	mov    %r12,%rdi
     9dd:	e8 00 00 00 00       	callq  9e2 <l2cap_global_chan_by_psm+0xc2>
     9e2:	85 c0                	test   %eax,%eax
			if (src_match && dst_match) {
     9e4:	0f 94 45 b6          	sete   -0x4a(%rbp)
     9e8:	0f 84 bc 00 00 00    	je     aaa <l2cap_global_chan_by_psm+0x18a>
     9ee:	48 8d 75 c4          	lea    -0x3c(%rbp),%rsi
     9f2:	4c 89 ff             	mov    %r15,%rdi
     9f5:	ba 06 00 00 00       	mov    $0x6,%edx
			src_any = !bacmp(&bt_sk(sk)->src, BDADDR_ANY);
     9fa:	c6 45 c4 00          	movb   $0x0,-0x3c(%rbp)
     9fe:	c6 45 c5 00          	movb   $0x0,-0x3b(%rbp)
     a02:	c6 45 c6 00          	movb   $0x0,-0x3a(%rbp)
     a06:	c6 45 c7 00          	movb   $0x0,-0x39(%rbp)
     a0a:	c6 45 c8 00          	movb   $0x0,-0x38(%rbp)
     a0e:	c6 45 c9 00          	movb   $0x0,-0x37(%rbp)
     a12:	e8 00 00 00 00       	callq  a17 <l2cap_global_chan_by_psm+0xf7>
     a17:	48 8d 75 ca          	lea    -0x36(%rbp),%rsi
     a1b:	ba 06 00 00 00       	mov    $0x6,%edx
     a20:	4c 89 e7             	mov    %r12,%rdi
     a23:	41 89 c7             	mov    %eax,%r15d
			dst_any = !bacmp(&bt_sk(sk)->dst, BDADDR_ANY);
     a26:	c6 45 ca 00          	movb   $0x0,-0x36(%rbp)
     a2a:	c6 45 cb 00          	movb   $0x0,-0x35(%rbp)
     a2e:	c6 45 cc 00          	movb   $0x0,-0x34(%rbp)
     a32:	c6 45 cd 00          	movb   $0x0,-0x33(%rbp)
     a36:	c6 45 ce 00          	movb   $0x0,-0x32(%rbp)
     a3a:	c6 45 cf 00          	movb   $0x0,-0x31(%rbp)
     a3e:	e8 00 00 00 00       	callq  a43 <l2cap_global_chan_by_psm+0x123>
     a43:	85 c0                	test   %eax,%eax
			if ((src_match && dst_any) || (src_any && dst_match) ||
     a45:	0f 94 c0             	sete   %al
     a48:	75 06                	jne    a50 <l2cap_global_chan_by_psm+0x130>
     a4a:	80 7d b7 00          	cmpb   $0x0,-0x49(%rbp)
     a4e:	75 0e                	jne    a5e <l2cap_global_chan_by_psm+0x13e>
			src_any = !bacmp(&bt_sk(sk)->src, BDADDR_ANY);
     a50:	45 85 ff             	test   %r15d,%r15d
			if ((src_match && dst_any) || (src_any && dst_match) ||
     a53:	0f 94 c2             	sete   %dl
     a56:	75 18                	jne    a70 <l2cap_global_chan_by_psm+0x150>
     a58:	80 7d b6 00          	cmpb   $0x0,-0x4a(%rbp)
     a5c:	74 12                	je     a70 <l2cap_global_chan_by_psm+0x150>
     a5e:	4c 89 75 b8          	mov    %r14,-0x48(%rbp)
     a62:	e9 1b ff ff ff       	jmpq   982 <l2cap_global_chan_by_psm+0x62>
     a67:	66 0f 1f 84 00 00 00 	nopw   0x0(%rax,%rax,1)
     a6e:	00 00 
     a70:	84 c0                	test   %al,%al
     a72:	0f 84 0a ff ff ff    	je     982 <l2cap_global_chan_by_psm+0x62>
     a78:	48 8b 45 b8          	mov    -0x48(%rbp),%rax
     a7c:	84 d2                	test   %dl,%dl
     a7e:	49 0f 45 c6          	cmovne %r14,%rax
     a82:	48 89 45 b8          	mov    %rax,-0x48(%rbp)
     a86:	e9 f7 fe ff ff       	jmpq   982 <l2cap_global_chan_by_psm+0x62>
     a8b:	0f 1f 44 00 00       	nopl   0x0(%rax,%rax,1)
     a90:	f0 ff 05 00 00 00 00 	lock incl 0x0(%rip)        # a97 <l2cap_global_chan_by_psm+0x177>
}
     a97:	48 8b 45 b8          	mov    -0x48(%rbp),%rax
     a9b:	48 83 c4 38          	add    $0x38,%rsp
     a9f:	5b                   	pop    %rbx
     aa0:	41 5c                	pop    %r12
     aa2:	41 5d                	pop    %r13
     aa4:	41 5e                	pop    %r14
     aa6:	41 5f                	pop    %r15
     aa8:	5d                   	pop    %rbp
     aa9:	c3                   	retq   
			if (src_match && dst_match) {
     aaa:	80 7d b7 00          	cmpb   $0x0,-0x49(%rbp)
     aae:	0f 84 3a ff ff ff    	je     9ee <l2cap_global_chan_by_psm+0xce>
     ab4:	f0 ff 05 00 00 00 00 	lock incl 0x0(%rip)        # abb <l2cap_global_chan_by_psm+0x19b>
				return c;
     abb:	4c 89 75 b8          	mov    %r14,-0x48(%rbp)
     abf:	eb d6                	jmp    a97 <l2cap_global_chan_by_psm+0x177>
     ac1:	0f 1f 44 00 00       	nopl   0x0(%rax,%rax,1)
     ac6:	66 2e 0f 1f 84 00 00 	nopw   %cs:0x0(%rax,%rax,1)
     acd:	00 00 00 

0000000000000ad0 <l2cap_check_fcs>:

	kfree_skb(skb);
}

static int l2cap_check_fcs(struct l2cap_chan *chan,  struct sk_buff *skb)
{
     ad0:	55                   	push   %rbp
     ad1:	48 89 e5             	mov    %rsp,%rbp
     ad4:	41 55                	push   %r13
     ad6:	41 54                	push   %r12
     ad8:	53                   	push   %rbx
     ad9:	48 83 ec 08          	sub    $0x8,%rsp
     add:	e8 00 00 00 00       	callq  ae2 <l2cap_check_fcs+0x12>
     ae2:	48 8b 87 90 00 00 00 	mov    0x90(%rdi),%rax
     ae9:	49 89 f5             	mov    %rsi,%r13
     aec:	48 c1 e8 04          	shr    $0x4,%rax
     af0:	83 e0 01             	and    $0x1,%eax
	u16 our_fcs, rcv_fcs;
	int hdr_size;

	if (test_bit(FLAG_EXT_CTRL, &chan->flags))
		hdr_size = L2CAP_EXT_HDR_SIZE;
     af3:	48 83 f8 01          	cmp    $0x1,%rax
     af7:	19 db                	sbb    %ebx,%ebx
		our_fcs = crc16(0, skb->data - hdr_size, skb->len + hdr_size);

		if (our_fcs != rcv_fcs)
			return -EBADMSG;
	}
	return 0;
     af9:	45 31 e4             	xor    %r12d,%r12d
		hdr_size = L2CAP_EXT_HDR_SIZE;
     afc:	83 e3 fe             	and    $0xfffffffe,%ebx
     aff:	83 c3 08             	add    $0x8,%ebx
	if (chan->fcs == L2CAP_FCS_CRC16) {
     b02:	80 7f 6f 01          	cmpb   $0x1,0x6f(%rdi)
     b06:	74 18                	je     b20 <l2cap_check_fcs+0x50>
}
     b08:	48 83 c4 08          	add    $0x8,%rsp
     b0c:	44 89 e0             	mov    %r12d,%eax
     b0f:	5b                   	pop    %rbx
     b10:	41 5c                	pop    %r12
     b12:	41 5d                	pop    %r13
     b14:	5d                   	pop    %rbp
     b15:	c3                   	retq   
     b16:	66 2e 0f 1f 84 00 00 	nopw   %cs:0x0(%rax,%rax,1)
     b1d:	00 00 00 
		skb_trim(skb, skb->len - L2CAP_FCS_SIZE);
     b20:	8b 46 68             	mov    0x68(%rsi),%eax
     b23:	4c 89 ef             	mov    %r13,%rdi
     b26:	8d 70 fe             	lea    -0x2(%rax),%esi
     b29:	e8 00 00 00 00       	callq  b2e <l2cap_check_fcs+0x5e>
		rcv_fcs = get_unaligned_le16(skb->data + skb->len);
     b2e:	41 8b 45 68          	mov    0x68(%r13),%eax
     b32:	49 8b b5 e0 00 00 00 	mov    0xe0(%r13),%rsi
		our_fcs = crc16(0, skb->data - hdr_size, skb->len + hdr_size);
     b39:	31 ff                	xor    %edi,%edi
		rcv_fcs = get_unaligned_le16(skb->data + skb->len);
     b3b:	89 c2                	mov    %eax,%edx
#define _LINUX_UNALIGNED_ACCESS_OK_H

#include <linux/kernel.h>
#include <asm/byteorder.h>

static inline u16 get_unaligned_le16(const void *p)
     b3d:	44 0f b7 2c 16       	movzwl (%rsi,%rdx,1),%r13d
		our_fcs = crc16(0, skb->data - hdr_size, skb->len + hdr_size);
     b42:	8d 14 03             	lea    (%rbx,%rax,1),%edx
     b45:	48 63 db             	movslq %ebx,%rbx
     b48:	48 29 de             	sub    %rbx,%rsi
     b4b:	e8 00 00 00 00       	callq  b50 <l2cap_check_fcs+0x80>
			return -EBADMSG;
     b50:	66 44 39 e8          	cmp    %r13w,%ax
     b54:	b8 b6 ff ff ff       	mov    $0xffffffb6,%eax
     b59:	44 0f 45 e0          	cmovne %eax,%r12d
}
     b5d:	48 83 c4 08          	add    $0x8,%rsp
     b61:	5b                   	pop    %rbx
     b62:	44 89 e0             	mov    %r12d,%eax
     b65:	41 5c                	pop    %r12
     b67:	41 5d                	pop    %r13
     b69:	5d                   	pop    %rbp
     b6a:	c3                   	retq   
     b6b:	0f 1f 44 00 00       	nopl   0x0(%rax,%rax,1)

0000000000000b70 <l2cap_debugfs_open>:

	return 0;
}

static int l2cap_debugfs_open(struct inode *inode, struct file *file)
{
     b70:	55                   	push   %rbp
     b71:	48 89 e5             	mov    %rsp,%rbp
     b74:	e8 00 00 00 00       	callq  b79 <l2cap_debugfs_open+0x9>
	return single_open(file, l2cap_debugfs_show, inode->i_private);
     b79:	48 8b 97 28 02 00 00 	mov    0x228(%rdi),%rdx
{
     b80:	48 89 f0             	mov    %rsi,%rax
	return single_open(file, l2cap_debugfs_show, inode->i_private);
     b83:	48 c7 c6 00 00 00 00 	mov    $0x0,%rsi
     b8a:	48 89 c7             	mov    %rax,%rdi
     b8d:	e8 00 00 00 00       	callq  b92 <l2cap_debugfs_open+0x22>
}
     b92:	5d                   	pop    %rbp
     b93:	c3                   	retq   
     b94:	66 90                	xchg   %ax,%ax
     b96:	66 2e 0f 1f 84 00 00 	nopw   %cs:0x0(%rax,%rax,1)
     b9d:	00 00 00 

0000000000000ba0 <l2cap_debugfs_show>:
{
     ba0:	55                   	push   %rbp
     ba1:	48 89 e5             	mov    %rsp,%rbp
     ba4:	41 57                	push   %r15
     ba6:	41 56                	push   %r14
     ba8:	41 55                	push   %r13
     baa:	41 54                	push   %r12
     bac:	53                   	push   %rbx
     bad:	48 83 ec 68          	sub    $0x68,%rsp
     bb1:	e8 00 00 00 00       	callq  bb6 <l2cap_debugfs_show+0x16>
     bb6:	48 89 7d a8          	mov    %rdi,-0x58(%rbp)
	read_lock(&chan_list_lock);
     bba:	48 c7 c7 00 00 00 00 	mov    $0x0,%rdi
     bc1:	e8 00 00 00 00       	callq  bc6 <l2cap_debugfs_show+0x26>
	list_for_each_entry(c, &chan_list, global_l) {
     bc6:	48 8b 05 00 00 00 00 	mov    0x0(%rip),%rax        # bcd <l2cap_debugfs_show+0x2d>
     bcd:	48 3d 00 00 00 00    	cmp    $0x0,%rax
     bd3:	48 8d 98 d8 fc ff ff 	lea    -0x328(%rax),%rbx
     bda:	0f 84 bd 00 00 00    	je     c9d <l2cap_debugfs_show+0xfd>
		struct sock *sk = c->sk;
     be0:	4c 8b 23             	mov    (%rbx),%r12
		seq_printf(f, "%s %s %d %d 0x%4.4x 0x%4.4x %d %d %d %d\n",
     be3:	44 0f b6 5b 2a       	movzbl 0x2a(%rbx),%r11d
     be8:	44 0f b7 53 20       	movzwl 0x20(%rbx),%r10d
     bed:	44 0f b7 4b 18       	movzwl 0x18(%rbx),%r9d
     bf2:	44 0f b6 43 10       	movzbl 0x10(%rbx),%r8d
     bf7:	0f b6 43 24          	movzbl 0x24(%rbx),%eax
     bfb:	49 8d bc 24 8e 02 00 	lea    0x28e(%r12),%rdi
     c02:	00 
     c03:	44 0f b7 7b 1e       	movzwl 0x1e(%rbx),%r15d
     c08:	44 0f b7 73 1a       	movzwl 0x1a(%rbx),%r14d
     c0d:	44 89 5d b4          	mov    %r11d,-0x4c(%rbp)
     c11:	44 0f b7 6b 1c       	movzwl 0x1c(%rbx),%r13d
     c16:	44 89 55 b8          	mov    %r10d,-0x48(%rbp)
     c1a:	44 89 4d bc          	mov    %r9d,-0x44(%rbp)
     c1e:	44 89 45 c8          	mov    %r8d,-0x38(%rbp)
     c22:	89 45 cc             	mov    %eax,-0x34(%rbp)
     c25:	e8 00 00 00 00       	callq  c2a <l2cap_debugfs_show+0x8a>
     c2a:	49 8d bc 24 88 02 00 	lea    0x288(%r12),%rdi
     c31:	00 
     c32:	48 89 45 c0          	mov    %rax,-0x40(%rbp)
     c36:	e8 00 00 00 00       	callq  c3b <l2cap_debugfs_show+0x9b>
     c3b:	8b 55 cc             	mov    -0x34(%rbp),%edx
     c3e:	44 8b 5d b4          	mov    -0x4c(%rbp),%r11d
     c42:	48 c7 c6 00 00 00 00 	mov    $0x0,%rsi
     c49:	44 8b 55 b8          	mov    -0x48(%rbp),%r10d
     c4d:	44 8b 4d bc          	mov    -0x44(%rbp),%r9d
     c51:	44 8b 45 c8          	mov    -0x38(%rbp),%r8d
     c55:	48 8b 4d c0          	mov    -0x40(%rbp),%rcx
     c59:	48 8b 7d a8          	mov    -0x58(%rbp),%rdi
     c5d:	89 54 24 28          	mov    %edx,0x28(%rsp)
     c61:	48 89 c2             	mov    %rax,%rdx
     c64:	44 89 5c 24 20       	mov    %r11d,0x20(%rsp)
     c69:	31 c0                	xor    %eax,%eax
     c6b:	44 89 54 24 18       	mov    %r10d,0x18(%rsp)
     c70:	44 89 7c 24 10       	mov    %r15d,0x10(%rsp)
     c75:	44 89 74 24 08       	mov    %r14d,0x8(%rsp)
     c7a:	44 89 2c 24          	mov    %r13d,(%rsp)
     c7e:	e8 00 00 00 00       	callq  c83 <l2cap_debugfs_show+0xe3>
	list_for_each_entry(c, &chan_list, global_l) {
     c83:	48 8b 83 28 03 00 00 	mov    0x328(%rbx),%rax
     c8a:	48 3d 00 00 00 00    	cmp    $0x0,%rax
     c90:	48 8d 98 d8 fc ff ff 	lea    -0x328(%rax),%rbx
     c97:	0f 85 43 ff ff ff    	jne    be0 <l2cap_debugfs_show+0x40>
     c9d:	f0 ff 05 00 00 00 00 	lock incl 0x0(%rip)        # ca4 <l2cap_debugfs_show+0x104>
}
     ca4:	48 83 c4 68          	add    $0x68,%rsp
     ca8:	31 c0                	xor    %eax,%eax
     caa:	5b                   	pop    %rbx
     cab:	41 5c                	pop    %r12
     cad:	41 5d                	pop    %r13
     caf:	41 5e                	pop    %r14
     cb1:	41 5f                	pop    %r15
     cb3:	5d                   	pop    %rbp
     cb4:	c3                   	retq   
     cb5:	90                   	nop
     cb6:	66 2e 0f 1f 84 00 00 	nopw   %cs:0x0(%rax,%rax,1)
     cbd:	00 00 00 

0000000000000cc0 <l2cap_ertm_init>:
{
     cc0:	55                   	push   %rbp
	chan->sdu_len = 0;
     cc1:	31 c0                	xor    %eax,%eax
	chan->next_tx_seq = 0;
     cc3:	31 c9                	xor    %ecx,%ecx
	chan->expected_tx_seq = 0;
     cc5:	31 f6                	xor    %esi,%esi
	chan->unacked_frames = 0;
     cc7:	45 31 c0             	xor    %r8d,%r8d
	chan->buffer_seq = 0;
     cca:	45 31 c9             	xor    %r9d,%r9d
{
     ccd:	48 89 e5             	mov    %rsp,%rbp
     cd0:	53                   	push   %rbx
     cd1:	48 89 fb             	mov    %rdi,%rbx
	chan->frames_sent = 0;
     cd4:	45 31 d2             	xor    %r10d,%r10d
	chan->last_acked_seq = 0;
     cd7:	45 31 db             	xor    %r11d,%r11d
 * network layer or drivers should need annotation to consolidate the
 * main types of usage into 3 classes.
 */
static inline void skb_queue_head_init(struct sk_buff_head *list)
{
	spin_lock_init(&list->lock);
     cda:	31 d2                	xor    %edx,%edx
{
     cdc:	48 83 ec 08          	sub    $0x8,%rsp
	chan->next_tx_seq = 0;
     ce0:	66 89 8f 98 00 00 00 	mov    %cx,0x98(%rdi)
	chan->expected_tx_seq = 0;
     ce7:	66 89 b7 9c 00 00 00 	mov    %si,0x9c(%rdi)
	chan->sdu_len = 0;
     cee:	66 89 83 b0 00 00 00 	mov    %ax,0xb0(%rbx)
	skb_queue_head_init(&chan->tx_q);
     cf5:	48 8d 83 b8 02 00 00 	lea    0x2b8(%rbx),%rax
	chan->expected_ack_seq = 0;
     cfc:	31 ff                	xor    %edi,%edi
     cfe:	66 89 bb 9a 00 00 00 	mov    %di,0x9a(%rbx)
	chan->unacked_frames = 0;
     d05:	66 44 89 83 a8 00 00 	mov    %r8w,0xa8(%rbx)
     d0c:	00 
	list->prev = list->next = (struct sk_buff *)list;
     d0d:	48 89 83 b8 02 00 00 	mov    %rax,0x2b8(%rbx)
     d14:	48 89 83 c0 02 00 00 	mov    %rax,0x2c0(%rbx)
		return 0;
     d1b:	31 c0                	xor    %eax,%eax
	if (chan->mode != L2CAP_MODE_ERTM)
     d1d:	80 7b 24 03          	cmpb   $0x3,0x24(%rbx)
	chan->buffer_seq = 0;
     d21:	66 44 89 8b 9e 00 00 	mov    %r9w,0x9e(%rbx)
     d28:	00 
	chan->num_acked = 0;
     d29:	c6 83 ae 00 00 00 00 	movb   $0x0,0xae(%rbx)
	chan->frames_sent = 0;
     d30:	66 44 89 93 a6 00 00 	mov    %r10w,0xa6(%rbx)
     d37:	00 
	chan->last_acked_seq = 0;
     d38:	66 44 89 9b a4 00 00 	mov    %r11w,0xa4(%rbx)
     d3f:	00 
	chan->sdu = NULL;
     d40:	48 c7 83 b8 00 00 00 	movq   $0x0,0xb8(%rbx)
     d47:	00 00 00 00 
	chan->sdu_last_frag = NULL;
     d4b:	48 c7 83 c0 00 00 00 	movq   $0x0,0xc0(%rbx)
     d52:	00 00 00 00 
	spin_lock_init(&list->lock);
     d56:	66 89 93 cc 02 00 00 	mov    %dx,0x2cc(%rbx)
	list->qlen = 0;
     d5d:	c7 83 c8 02 00 00 00 	movl   $0x0,0x2c8(%rbx)
     d64:	00 00 00 
	if (chan->mode != L2CAP_MODE_ERTM)
     d67:	74 07                	je     d70 <l2cap_ertm_init+0xb0>
}
     d69:	48 83 c4 08          	add    $0x8,%rsp
     d6d:	5b                   	pop    %rbx
     d6e:	5d                   	pop    %rbp
     d6f:	c3                   	retq   
	INIT_DELAYED_WORK(&chan->retrans_timer, l2cap_retrans_timeout);
     d70:	48 8d 83 68 01 00 00 	lea    0x168(%rbx),%rax
     d77:	48 8d bb 80 01 00 00 	lea    0x180(%rbx),%rdi
     d7e:	31 d2                	xor    %edx,%edx
     d80:	31 f6                	xor    %esi,%esi
	chan->rx_state = L2CAP_RX_STATE_RECV;
     d82:	c6 43 7d 00          	movb   $0x0,0x7d(%rbx)
	chan->tx_state = L2CAP_TX_STATE_XMIT;
     d86:	c6 43 7c 00          	movb   $0x0,0x7c(%rbx)
	list->next = list;
     d8a:	48 89 83 68 01 00 00 	mov    %rax,0x168(%rbx)
	list->prev = list;
     d91:	48 89 83 70 01 00 00 	mov    %rax,0x170(%rbx)
	INIT_DELAYED_WORK(&chan->retrans_timer, l2cap_retrans_timeout);
     d98:	48 c7 83 60 01 00 00 	movq   $0x900,0x160(%rbx)
     d9f:	00 09 00 00 
     da3:	48 c7 83 78 01 00 00 	movq   $0x0,0x178(%rbx)
     daa:	00 00 00 00 
     dae:	e8 00 00 00 00       	callq  db3 <l2cap_ertm_init+0xf3>
	INIT_DELAYED_WORK(&chan->monitor_timer, l2cap_monitor_timeout);
     db3:	48 8d 83 d8 01 00 00 	lea    0x1d8(%rbx),%rax
     dba:	48 8d bb f0 01 00 00 	lea    0x1f0(%rbx),%rdi
     dc1:	31 d2                	xor    %edx,%edx
     dc3:	31 f6                	xor    %esi,%esi
     dc5:	48 c7 83 d0 01 00 00 	movq   $0x900,0x1d0(%rbx)
     dcc:	00 09 00 00 
     dd0:	48 c7 83 e8 01 00 00 	movq   $0x0,0x1e8(%rbx)
     dd7:	00 00 00 00 
	list->next = list;
     ddb:	48 89 83 d8 01 00 00 	mov    %rax,0x1d8(%rbx)
	list->prev = list;
     de2:	48 89 83 e0 01 00 00 	mov    %rax,0x1e0(%rbx)
     de9:	e8 00 00 00 00       	callq  dee <l2cap_ertm_init+0x12e>
	INIT_DELAYED_WORK(&chan->ack_timer, l2cap_ack_timeout);
     dee:	48 8d 83 48 02 00 00 	lea    0x248(%rbx),%rax
     df5:	48 8d bb 60 02 00 00 	lea    0x260(%rbx),%rdi
     dfc:	31 d2                	xor    %edx,%edx
     dfe:	31 f6                	xor    %esi,%esi
     e00:	48 c7 83 40 02 00 00 	movq   $0x900,0x240(%rbx)
     e07:	00 09 00 00 
     e0b:	48 c7 83 58 02 00 00 	movq   $0x0,0x258(%rbx)
     e12:	00 00 00 00 
	list->next = list;
     e16:	48 89 83 48 02 00 00 	mov    %rax,0x248(%rbx)
	list->prev = list;
     e1d:	48 89 83 50 02 00 00 	mov    %rax,0x250(%rbx)
     e24:	e8 00 00 00 00       	callq  e29 <l2cap_ertm_init+0x169>
	skb_queue_head_init(&chan->srej_q);
     e29:	48 8d 83 d0 02 00 00 	lea    0x2d0(%rbx),%rax
	err = l2cap_seq_list_init(&chan->srej_list, chan->tx_win);
     e30:	0f b7 73 70          	movzwl 0x70(%rbx),%esi
	spin_lock_init(&list->lock);
     e34:	31 d2                	xor    %edx,%edx
     e36:	48 8d bb e8 02 00 00 	lea    0x2e8(%rbx),%rdi
     e3d:	66 89 93 e4 02 00 00 	mov    %dx,0x2e4(%rbx)
	list->qlen = 0;
     e44:	c7 83 e0 02 00 00 00 	movl   $0x0,0x2e0(%rbx)
     e4b:	00 00 00 
	list->prev = list->next = (struct sk_buff *)list;
     e4e:	48 89 83 d0 02 00 00 	mov    %rax,0x2d0(%rbx)
     e55:	48 89 83 d8 02 00 00 	mov    %rax,0x2d8(%rbx)
	INIT_LIST_HEAD(&chan->srej_l);
     e5c:	48 8d 83 08 03 00 00 	lea    0x308(%rbx),%rax
	list->next = list;
     e63:	48 89 83 08 03 00 00 	mov    %rax,0x308(%rbx)
	list->prev = list;
     e6a:	48 89 83 10 03 00 00 	mov    %rax,0x310(%rbx)
	err = l2cap_seq_list_init(&chan->srej_list, chan->tx_win);
     e71:	e8 ca f3 ff ff       	callq  240 <l2cap_seq_list_init>
	if (err < 0)
     e76:	85 c0                	test   %eax,%eax
     e78:	0f 88 eb fe ff ff    	js     d69 <l2cap_ertm_init+0xa9>
	return l2cap_seq_list_init(&chan->retrans_list, chan->remote_tx_win);
     e7e:	0f b7 b3 c8 00 00 00 	movzwl 0xc8(%rbx),%esi
     e85:	48 8d bb f8 02 00 00 	lea    0x2f8(%rbx),%rdi
     e8c:	e8 af f3 ff ff       	callq  240 <l2cap_seq_list_init>
}
     e91:	48 83 c4 08          	add    $0x8,%rsp
     e95:	5b                   	pop    %rbx
     e96:	5d                   	pop    %rbp
     e97:	c3                   	retq   
     e98:	0f 1f 84 00 00 00 00 	nopl   0x0(%rax,%rax,1)
     e9f:	00 

0000000000000ea0 <l2cap_conn_unreliable.constprop.37>:
static void l2cap_conn_unreliable(struct l2cap_conn *conn, int err)
     ea0:	55                   	push   %rbp
     ea1:	48 89 e5             	mov    %rsp,%rbp
     ea4:	41 54                	push   %r12
     ea6:	53                   	push   %rbx
     ea7:	e8 00 00 00 00       	callq  eac <l2cap_conn_unreliable.constprop.37+0xc>
	BT_DBG("conn %p", conn);
     eac:	f6 05 00 00 00 00 04 	testb  $0x4,0x0(%rip)        # eb3 <l2cap_conn_unreliable.constprop.37+0x13>
static void l2cap_conn_unreliable(struct l2cap_conn *conn, int err)
     eb3:	48 89 fb             	mov    %rdi,%rbx
	BT_DBG("conn %p", conn);
     eb6:	75 69                	jne    f21 <l2cap_conn_unreliable.constprop.37+0x81>
	mutex_lock(&conn->chan_lock);
     eb8:	4c 8d a3 40 01 00 00 	lea    0x140(%rbx),%r12
     ebf:	4c 89 e7             	mov    %r12,%rdi
     ec2:	e8 00 00 00 00       	callq  ec7 <l2cap_conn_unreliable.constprop.37+0x27>
	list_for_each_entry(chan, &conn->chan_l, list) {
     ec7:	48 8b 93 30 01 00 00 	mov    0x130(%rbx),%rdx
     ece:	48 8d 8b 30 01 00 00 	lea    0x130(%rbx),%rcx
     ed5:	48 39 d1             	cmp    %rdx,%rcx
     ed8:	48 8d 82 e8 fc ff ff 	lea    -0x318(%rdx),%rax
     edf:	74 33                	je     f14 <l2cap_conn_unreliable.constprop.37+0x74>
     ee1:	0f 1f 80 00 00 00 00 	nopl   0x0(%rax)
     ee8:	48 8b 90 90 00 00 00 	mov    0x90(%rax),%rdx
		if (test_bit(FLAG_FORCE_RELIABLE, &chan->flags))
     eef:	83 e2 04             	and    $0x4,%edx
     ef2:	74 0d                	je     f01 <l2cap_conn_unreliable.constprop.37+0x61>
	struct l2cap_chan *chan;
     ef4:	48 8b 10             	mov    (%rax),%rdx
	sk->sk_err = err;
     ef7:	c7 82 7c 01 00 00 46 	movl   $0x46,0x17c(%rdx)
     efe:	00 00 00 
	list_for_each_entry(chan, &conn->chan_l, list) {
     f01:	48 8b 90 18 03 00 00 	mov    0x318(%rax),%rdx
     f08:	48 39 d1             	cmp    %rdx,%rcx
     f0b:	48 8d 82 e8 fc ff ff 	lea    -0x318(%rdx),%rax
     f12:	75 d4                	jne    ee8 <l2cap_conn_unreliable.constprop.37+0x48>
	mutex_unlock(&conn->chan_lock);
     f14:	4c 89 e7             	mov    %r12,%rdi
     f17:	e8 00 00 00 00       	callq  f1c <l2cap_conn_unreliable.constprop.37+0x7c>
}
     f1c:	5b                   	pop    %rbx
     f1d:	41 5c                	pop    %r12
     f1f:	5d                   	pop    %rbp
     f20:	c3                   	retq   
	BT_DBG("conn %p", conn);
     f21:	48 89 fa             	mov    %rdi,%rdx
     f24:	48 c7 c6 00 00 00 00 	mov    $0x0,%rsi
     f2b:	48 c7 c7 00 00 00 00 	mov    $0x0,%rdi
     f32:	31 c0                	xor    %eax,%eax
     f34:	e8 00 00 00 00       	callq  f39 <l2cap_conn_unreliable.constprop.37+0x99>
     f39:	e9 7a ff ff ff       	jmpq   eb8 <l2cap_conn_unreliable.constprop.37+0x18>
     f3e:	66 90                	xchg   %ax,%ax

0000000000000f40 <l2cap_conn_add.part.29>:
static struct l2cap_conn *l2cap_conn_add(struct hci_conn *hcon, u8 status)
     f40:	55                   	push   %rbp
     f41:	48 89 e5             	mov    %rsp,%rbp
     f44:	41 55                	push   %r13
     f46:	41 54                	push   %r12
     f48:	53                   	push   %rbx
     f49:	48 83 ec 08          	sub    $0x8,%rsp
     f4d:	e8 00 00 00 00       	callq  f52 <l2cap_conn_add.part.29+0x12>
     f52:	49 89 fc             	mov    %rdi,%r12
	hchan = hci_chan_create(hcon);
     f55:	e8 00 00 00 00       	callq  f5a <l2cap_conn_add.part.29+0x1a>
	if (!hchan)
     f5a:	48 85 c0             	test   %rax,%rax
	hchan = hci_chan_create(hcon);
     f5d:	49 89 c5             	mov    %rax,%r13
	if (!hchan)
     f60:	0f 84 8a 01 00 00    	je     10f0 <l2cap_conn_add.part.29+0x1b0>
	return kmalloc_caches[index];
     f66:	48 8b 3d 00 00 00 00 	mov    0x0(%rip),%rdi        # f6d <l2cap_conn_add.part.29+0x2d>
			if (!s)
     f6d:	48 85 ff             	test   %rdi,%rdi
     f70:	0f 84 12 01 00 00    	je     1088 <l2cap_conn_add.part.29+0x148>
			return kmem_cache_alloc_trace(s, flags, size);
     f76:	ba 60 01 00 00       	mov    $0x160,%edx
     f7b:	be 20 80 00 00       	mov    $0x8020,%esi
     f80:	e8 00 00 00 00       	callq  f85 <l2cap_conn_add.part.29+0x45>
	if (!conn) {
     f85:	48 85 c0             	test   %rax,%rax
     f88:	48 89 c3             	mov    %rax,%rbx
     f8b:	0f 84 47 01 00 00    	je     10d8 <l2cap_conn_add.part.29+0x198>
	hcon->l2cap_data = conn;
     f91:	49 89 9c 24 20 04 00 	mov    %rbx,0x420(%r12)
     f98:	00 
	conn->hcon = hcon;
     f99:	4c 89 23             	mov    %r12,(%rbx)
	conn->hchan = hchan;
     f9c:	4c 89 6b 08          	mov    %r13,0x8(%rbx)
	BT_DBG("hcon %p conn %p hchan %p", hcon, conn, hchan);
     fa0:	f6 05 00 00 00 00 04 	testb  $0x4,0x0(%rip)        # fa7 <l2cap_conn_add.part.29+0x67>
     fa7:	0f 85 4a 01 00 00    	jne    10f7 <l2cap_conn_add.part.29+0x1b7>
	if (hcon->hdev->le_mtu && hcon->type == LE_LINK)
     fad:	49 8b 84 24 18 04 00 	mov    0x418(%r12),%rax
     fb4:	00 
     fb5:	8b 90 08 03 00 00    	mov    0x308(%rax),%edx
     fbb:	85 d2                	test   %edx,%edx
     fbd:	0f 85 ad 00 00 00    	jne    1070 <l2cap_conn_add.part.29+0x130>
		conn->mtu = hcon->hdev->acl_mtu;
     fc3:	8b 80 00 03 00 00    	mov    0x300(%rax),%eax
     fc9:	89 43 20             	mov    %eax,0x20(%rbx)
	conn->src = &hcon->hdev->bdaddr;
     fcc:	49 8b 84 24 18 04 00 	mov    0x418(%r12),%rax
     fd3:	00 
	mutex_init(&conn->chan_lock);
     fd4:	48 8d bb 40 01 00 00 	lea    0x140(%rbx),%rdi
	conn->feat_mask = 0;
     fdb:	c7 43 24 00 00 00 00 	movl   $0x0,0x24(%rbx)
	mutex_init(&conn->chan_lock);
     fe2:	48 c7 c2 00 00 00 00 	mov    $0x0,%rdx
     fe9:	48 c7 c6 00 00 00 00 	mov    $0x0,%rsi
	conn->src = &hcon->hdev->bdaddr;
     ff0:	48 83 c0 44          	add    $0x44,%rax
     ff4:	48 89 43 18          	mov    %rax,0x18(%rbx)
	conn->dst = &hcon->dst;
     ff8:	49 8d 44 24 14       	lea    0x14(%r12),%rax
     ffd:	48 89 43 10          	mov    %rax,0x10(%rbx)
	spin_lock_init(&conn->lock);
    1001:	31 c0                	xor    %eax,%eax
    1003:	66 89 83 a0 00 00 00 	mov    %ax,0xa0(%rbx)
	mutex_init(&conn->chan_lock);
    100a:	e8 00 00 00 00       	callq  100f <l2cap_conn_add.part.29+0xcf>
	INIT_LIST_HEAD(&conn->chan_l);
    100f:	48 8d 83 30 01 00 00 	lea    0x130(%rbx),%rax
	list->next = list;
    1016:	48 89 83 30 01 00 00 	mov    %rax,0x130(%rbx)
	list->prev = list;
    101d:	48 89 83 38 01 00 00 	mov    %rax,0x138(%rbx)
	if (hcon->type == LE_LINK)
    1024:	41 80 7c 24 21 80    	cmpb   $0x80,0x21(%r12)
    102a:	74 6c                	je     1098 <l2cap_conn_add.part.29+0x158>
		INIT_DELAYED_WORK(&conn->info_timer, l2cap_info_timeout);
    102c:	48 8d 43 38          	lea    0x38(%rbx),%rax
    1030:	48 8d 7b 50          	lea    0x50(%rbx),%rdi
    1034:	48 c7 43 30 00 09 00 	movq   $0x900,0x30(%rbx)
    103b:	00 
    103c:	48 c7 43 48 00 00 00 	movq   $0x0,0x48(%rbx)
    1043:	00 
    1044:	31 d2                	xor    %edx,%edx
    1046:	31 f6                	xor    %esi,%esi
	list->next = list;
    1048:	48 89 43 38          	mov    %rax,0x38(%rbx)
	list->prev = list;
    104c:	48 89 43 40          	mov    %rax,0x40(%rbx)
    1050:	e8 00 00 00 00       	callq  1055 <l2cap_conn_add.part.29+0x115>
	conn->disc_reason = HCI_ERROR_REMOTE_USER_TERM;
    1055:	c6 83 b5 00 00 00 13 	movb   $0x13,0xb5(%rbx)
    105c:	48 89 d8             	mov    %rbx,%rax
}
    105f:	48 83 c4 08          	add    $0x8,%rsp
    1063:	5b                   	pop    %rbx
    1064:	41 5c                	pop    %r12
    1066:	41 5d                	pop    %r13
    1068:	5d                   	pop    %rbp
    1069:	c3                   	retq   
    106a:	66 0f 1f 44 00 00    	nopw   0x0(%rax,%rax,1)
	if (hcon->hdev->le_mtu && hcon->type == LE_LINK)
    1070:	41 80 7c 24 21 80    	cmpb   $0x80,0x21(%r12)
    1076:	0f 85 47 ff ff ff    	jne    fc3 <l2cap_conn_add.part.29+0x83>
		conn->mtu = hcon->hdev->le_mtu;
    107c:	89 53 20             	mov    %edx,0x20(%rbx)
    107f:	e9 48 ff ff ff       	jmpq   fcc <l2cap_conn_add.part.29+0x8c>
    1084:	0f 1f 40 00          	nopl   0x0(%rax)
				return ZERO_SIZE_PTR;
    1088:	bb 10 00 00 00       	mov    $0x10,%ebx
    108d:	e9 ff fe ff ff       	jmpq   f91 <l2cap_conn_add.part.29+0x51>
    1092:	66 0f 1f 44 00 00    	nopw   0x0(%rax,%rax,1)
		INIT_DELAYED_WORK(&conn->security_timer, security_timeout);
    1098:	48 8d 83 c0 00 00 00 	lea    0xc0(%rbx),%rax
    109f:	48 8d bb d8 00 00 00 	lea    0xd8(%rbx),%rdi
    10a6:	48 c7 83 b8 00 00 00 	movq   $0x900,0xb8(%rbx)
    10ad:	00 09 00 00 
    10b1:	48 c7 83 d0 00 00 00 	movq   $0x0,0xd0(%rbx)
    10b8:	00 00 00 00 
    10bc:	31 d2                	xor    %edx,%edx
    10be:	31 f6                	xor    %esi,%esi
	list->next = list;
    10c0:	48 89 83 c0 00 00 00 	mov    %rax,0xc0(%rbx)
	list->prev = list;
    10c7:	48 89 83 c8 00 00 00 	mov    %rax,0xc8(%rbx)
    10ce:	e8 00 00 00 00       	callq  10d3 <l2cap_conn_add.part.29+0x193>
    10d3:	e9 7d ff ff ff       	jmpq   1055 <l2cap_conn_add.part.29+0x115>
		hci_chan_del(hchan);
    10d8:	4c 89 ef             	mov    %r13,%rdi
    10db:	e8 00 00 00 00       	callq  10e0 <l2cap_conn_add.part.29+0x1a0>
		return NULL;
    10e0:	31 c0                	xor    %eax,%eax
    10e2:	e9 78 ff ff ff       	jmpq   105f <l2cap_conn_add.part.29+0x11f>
    10e7:	66 0f 1f 84 00 00 00 	nopw   0x0(%rax,%rax,1)
    10ee:	00 00 
		return NULL;
    10f0:	31 c0                	xor    %eax,%eax
    10f2:	e9 68 ff ff ff       	jmpq   105f <l2cap_conn_add.part.29+0x11f>
	BT_DBG("hcon %p conn %p hchan %p", hcon, conn, hchan);
    10f7:	4d 89 e8             	mov    %r13,%r8
    10fa:	48 89 d9             	mov    %rbx,%rcx
    10fd:	4c 89 e2             	mov    %r12,%rdx
    1100:	48 c7 c6 00 00 00 00 	mov    $0x0,%rsi
    1107:	48 c7 c7 00 00 00 00 	mov    $0x0,%rdi
    110e:	31 c0                	xor    %eax,%eax
    1110:	e8 00 00 00 00       	callq  1115 <l2cap_conn_add.part.29+0x1d5>
    1115:	e9 93 fe ff ff       	jmpq   fad <l2cap_conn_add.part.29+0x6d>
    111a:	66 0f 1f 44 00 00    	nopw   0x0(%rax,%rax,1)

0000000000001120 <l2cap_reassemble_sdu>:
{
    1120:	55                   	push   %rbp
    1121:	48 89 e5             	mov    %rsp,%rbp
    1124:	41 54                	push   %r12
    1126:	53                   	push   %rbx
    1127:	48 83 ec 10          	sub    $0x10,%rsp
    112b:	e8 00 00 00 00       	callq  1130 <l2cap_reassemble_sdu+0x10>
    1130:	48 8b 87 90 00 00 00 	mov    0x90(%rdi),%rax
    1137:	48 89 fb             	mov    %rdi,%rbx
    113a:	49 89 f4             	mov    %rsi,%r12
		return L2CAP_CTRL_FRAME_TYPE;
}

static inline __u8 __get_ctrl_sar(struct l2cap_chan *chan, __u32 ctrl)
{
	if (test_bit(FLAG_EXT_CTRL, &chan->flags))
    113d:	a8 10                	test   $0x10,%al
    113f:	74 57                	je     1198 <l2cap_reassemble_sdu+0x78>
		return (ctrl & L2CAP_EXT_CTRL_SAR) >> L2CAP_EXT_CTRL_SAR_SHIFT;
    1141:	81 e2 00 00 03 00    	and    $0x30000,%edx
    1147:	c1 ea 10             	shr    $0x10,%edx
	switch (__get_ctrl_sar(chan, control)) {
    114a:	80 fa 02             	cmp    $0x2,%dl
    114d:	74 57                	je     11a6 <l2cap_reassemble_sdu+0x86>
    114f:	80 fa 03             	cmp    $0x3,%dl
    1152:	0f 84 60 01 00 00    	je     12b8 <l2cap_reassemble_sdu+0x198>
    1158:	80 fa 01             	cmp    $0x1,%dl
    115b:	0f 84 ff 00 00 00    	je     1260 <l2cap_reassemble_sdu+0x140>
		if (chan->sdu)
    1161:	48 83 bb b8 00 00 00 	cmpq   $0x0,0xb8(%rbx)
    1168:	00 
    1169:	0f 85 59 01 00 00    	jne    12c8 <l2cap_reassemble_sdu+0x1a8>
		err = chan->ops->recv(chan->data, skb);
    116f:	48 8b 83 40 03 00 00 	mov    0x340(%rbx),%rax
    1176:	48 8b bb 38 03 00 00 	mov    0x338(%rbx),%rdi
    117d:	4c 89 e6             	mov    %r12,%rsi
    1180:	ff 50 10             	callq  *0x10(%rax)
	if (err) {
    1183:	85 c0                	test   %eax,%eax
    1185:	0f 85 42 01 00 00    	jne    12cd <l2cap_reassemble_sdu+0x1ad>
}
    118b:	48 83 c4 10          	add    $0x10,%rsp
    118f:	5b                   	pop    %rbx
    1190:	41 5c                	pop    %r12
    1192:	5d                   	pop    %rbp
    1193:	c3                   	retq   
    1194:	0f 1f 40 00          	nopl   0x0(%rax)
	else
		return (ctrl & L2CAP_CTRL_SAR) >> L2CAP_CTRL_SAR_SHIFT;
    1198:	81 e2 00 c0 00 00    	and    $0xc000,%edx
    119e:	c1 ea 0e             	shr    $0xe,%edx
	switch (__get_ctrl_sar(chan, control)) {
    11a1:	80 fa 02             	cmp    $0x2,%dl
    11a4:	75 a9                	jne    114f <l2cap_reassemble_sdu+0x2f>
		if (!chan->sdu)
    11a6:	48 8b 83 b8 00 00 00 	mov    0xb8(%rbx),%rax
    11ad:	48 85 c0             	test   %rax,%rax
    11b0:	0f 84 12 01 00 00    	je     12c8 <l2cap_reassemble_sdu+0x1a8>
	return skb->head + skb->end;
    11b6:	8b 90 d0 00 00 00    	mov    0xd0(%rax),%edx
    11bc:	48 03 90 d8 00 00 00 	add    0xd8(%rax),%rdx
	if (!skb_has_frag_list(skb))
    11c3:	48 83 7a 08 00       	cmpq   $0x0,0x8(%rdx)
    11c8:	0f 84 c2 01 00 00    	je     1390 <l2cap_reassemble_sdu+0x270>
	new_frag->next = NULL;
    11ce:	49 c7 04 24 00 00 00 	movq   $0x0,(%r12)
    11d5:	00 
	(*last_frag)->next = new_frag;
    11d6:	48 8b 93 c0 00 00 00 	mov    0xc0(%rbx),%rdx
    11dd:	4c 89 22             	mov    %r12,(%rdx)
	*last_frag = new_frag;
    11e0:	4c 89 a3 c0 00 00 00 	mov    %r12,0xc0(%rbx)
	skb->len += new_frag->len;
    11e7:	41 8b 54 24 68       	mov    0x68(%r12),%edx
    11ec:	01 50 68             	add    %edx,0x68(%rax)
	skb->data_len += new_frag->len;
    11ef:	41 8b 54 24 68       	mov    0x68(%r12),%edx
    11f4:	01 50 6c             	add    %edx,0x6c(%rax)
	skb->truesize += new_frag->truesize;
    11f7:	41 8b 94 24 e8 00 00 	mov    0xe8(%r12),%edx
    11fe:	00 
    11ff:	01 90 e8 00 00 00    	add    %edx,0xe8(%rax)
		if (chan->sdu->len != chan->sdu_len)
    1205:	48 8b b3 b8 00 00 00 	mov    0xb8(%rbx),%rsi
    120c:	0f b7 83 b0 00 00 00 	movzwl 0xb0(%rbx),%eax
    1213:	39 46 68             	cmp    %eax,0x68(%rsi)
    1216:	0f 85 5c 01 00 00    	jne    1378 <l2cap_reassemble_sdu+0x258>
		err = chan->ops->recv(chan->data, chan->sdu);
    121c:	48 8b 83 40 03 00 00 	mov    0x340(%rbx),%rax
    1223:	48 8b bb 38 03 00 00 	mov    0x338(%rbx),%rdi
    122a:	ff 50 10             	callq  *0x10(%rax)
		if (!err) {
    122d:	85 c0                	test   %eax,%eax
    122f:	0f 85 53 01 00 00    	jne    1388 <l2cap_reassemble_sdu+0x268>
			chan->sdu_len = 0;
    1235:	31 d2                	xor    %edx,%edx
			chan->sdu = NULL;
    1237:	48 c7 83 b8 00 00 00 	movq   $0x0,0xb8(%rbx)
    123e:	00 00 00 00 
			chan->sdu_last_frag = NULL;
    1242:	48 c7 83 c0 00 00 00 	movq   $0x0,0xc0(%rbx)
    1249:	00 00 00 00 
			chan->sdu_len = 0;
    124d:	66 89 93 b0 00 00 00 	mov    %dx,0xb0(%rbx)
{
    1254:	31 c0                	xor    %eax,%eax
}
    1256:	48 83 c4 10          	add    $0x10,%rsp
    125a:	5b                   	pop    %rbx
    125b:	41 5c                	pop    %r12
    125d:	5d                   	pop    %rbp
    125e:	c3                   	retq   
    125f:	90                   	nop
		if (chan->sdu)
    1260:	48 83 bb b8 00 00 00 	cmpq   $0x0,0xb8(%rbx)
    1267:	00 
    1268:	75 5e                	jne    12c8 <l2cap_reassemble_sdu+0x1a8>
    126a:	49 8b 84 24 e0 00 00 	mov    0xe0(%r12),%rax
    1271:	00 
		skb_pull(skb, L2CAP_SDULEN_SIZE);
    1272:	be 02 00 00 00       	mov    $0x2,%esi
    1277:	4c 89 e7             	mov    %r12,%rdi
    127a:	0f b7 00             	movzwl (%rax),%eax
		chan->sdu_len = get_unaligned_le16(skb->data);
    127d:	66 89 83 b0 00 00 00 	mov    %ax,0xb0(%rbx)
		skb_pull(skb, L2CAP_SDULEN_SIZE);
    1284:	e8 00 00 00 00       	callq  1289 <l2cap_reassemble_sdu+0x169>
		if (chan->sdu_len > chan->imtu) {
    1289:	0f b7 83 b0 00 00 00 	movzwl 0xb0(%rbx),%eax
    1290:	66 3b 43 1e          	cmp    0x1e(%rbx),%ax
    1294:	0f 87 0f 01 00 00    	ja     13a9 <l2cap_reassemble_sdu+0x289>
		if (skb->len >= chan->sdu_len)
    129a:	41 39 44 24 68       	cmp    %eax,0x68(%r12)
    129f:	73 27                	jae    12c8 <l2cap_reassemble_sdu+0x1a8>
		chan->sdu = skb;
    12a1:	4c 89 a3 b8 00 00 00 	mov    %r12,0xb8(%rbx)
		chan->sdu_last_frag = skb;
    12a8:	4c 89 a3 c0 00 00 00 	mov    %r12,0xc0(%rbx)
{
    12af:	31 c0                	xor    %eax,%eax
    12b1:	eb a3                	jmp    1256 <l2cap_reassemble_sdu+0x136>
    12b3:	0f 1f 44 00 00       	nopl   0x0(%rax,%rax,1)
		if (!chan->sdu)
    12b8:	48 8b 83 b8 00 00 00 	mov    0xb8(%rbx),%rax
    12bf:	48 85 c0             	test   %rax,%rax
    12c2:	75 4c                	jne    1310 <l2cap_reassemble_sdu+0x1f0>
    12c4:	0f 1f 40 00          	nopl   0x0(%rax)
	int err = -EINVAL;
    12c8:	b8 ea ff ff ff       	mov    $0xffffffea,%eax
		kfree_skb(skb);
    12cd:	4c 89 e7             	mov    %r12,%rdi
    12d0:	89 45 ec             	mov    %eax,-0x14(%rbp)
    12d3:	e8 00 00 00 00       	callq  12d8 <l2cap_reassemble_sdu+0x1b8>
		kfree_skb(chan->sdu);
    12d8:	48 8b bb b8 00 00 00 	mov    0xb8(%rbx),%rdi
    12df:	e8 00 00 00 00       	callq  12e4 <l2cap_reassemble_sdu+0x1c4>
		chan->sdu_len = 0;
    12e4:	31 c0                	xor    %eax,%eax
		chan->sdu = NULL;
    12e6:	48 c7 83 b8 00 00 00 	movq   $0x0,0xb8(%rbx)
    12ed:	00 00 00 00 
		chan->sdu_last_frag = NULL;
    12f1:	48 c7 83 c0 00 00 00 	movq   $0x0,0xc0(%rbx)
    12f8:	00 00 00 00 
		chan->sdu_len = 0;
    12fc:	66 89 83 b0 00 00 00 	mov    %ax,0xb0(%rbx)
    1303:	8b 45 ec             	mov    -0x14(%rbp),%eax
}
    1306:	48 83 c4 10          	add    $0x10,%rsp
    130a:	5b                   	pop    %rbx
    130b:	41 5c                	pop    %r12
    130d:	5d                   	pop    %rbp
    130e:	c3                   	retq   
    130f:	90                   	nop
    1310:	8b 90 d0 00 00 00    	mov    0xd0(%rax),%edx
    1316:	48 03 90 d8 00 00 00 	add    0xd8(%rax),%rdx
	if (!skb_has_frag_list(skb))
    131d:	48 83 7a 08 00       	cmpq   $0x0,0x8(%rdx)
    1322:	74 7c                	je     13a0 <l2cap_reassemble_sdu+0x280>
	new_frag->next = NULL;
    1324:	49 c7 04 24 00 00 00 	movq   $0x0,(%r12)
    132b:	00 
	(*last_frag)->next = new_frag;
    132c:	48 8b 93 c0 00 00 00 	mov    0xc0(%rbx),%rdx
    1333:	4c 89 22             	mov    %r12,(%rdx)
	*last_frag = new_frag;
    1336:	4c 89 a3 c0 00 00 00 	mov    %r12,0xc0(%rbx)
	skb->len += new_frag->len;
    133d:	41 8b 54 24 68       	mov    0x68(%r12),%edx
    1342:	01 50 68             	add    %edx,0x68(%rax)
	skb->data_len += new_frag->len;
    1345:	41 8b 54 24 68       	mov    0x68(%r12),%edx
    134a:	01 50 6c             	add    %edx,0x6c(%rax)
	skb->truesize += new_frag->truesize;
    134d:	41 8b 94 24 e8 00 00 	mov    0xe8(%r12),%edx
    1354:	00 
    1355:	01 90 e8 00 00 00    	add    %edx,0xe8(%rax)
		if (chan->sdu->len >= chan->sdu_len)
    135b:	48 8b 93 b8 00 00 00 	mov    0xb8(%rbx),%rdx
    1362:	0f b7 83 b0 00 00 00 	movzwl 0xb0(%rbx),%eax
    1369:	39 42 68             	cmp    %eax,0x68(%rdx)
    136c:	0f 82 e2 fe ff ff    	jb     1254 <l2cap_reassemble_sdu+0x134>
    1372:	66 0f 1f 44 00 00    	nopw   0x0(%rax,%rax,1)
	int err = -EINVAL;
    1378:	b8 ea ff ff ff       	mov    $0xffffffea,%eax
		skb = NULL;
    137d:	45 31 e4             	xor    %r12d,%r12d
    1380:	e9 48 ff ff ff       	jmpq   12cd <l2cap_reassemble_sdu+0x1ad>
    1385:	0f 1f 00             	nopl   (%rax)
		skb = NULL;
    1388:	45 31 e4             	xor    %r12d,%r12d
    138b:	e9 3d ff ff ff       	jmpq   12cd <l2cap_reassemble_sdu+0x1ad>
		skb_shinfo(skb)->frag_list = new_frag;
    1390:	4c 89 62 08          	mov    %r12,0x8(%rdx)
    1394:	e9 35 fe ff ff       	jmpq   11ce <l2cap_reassemble_sdu+0xae>
    1399:	0f 1f 80 00 00 00 00 	nopl   0x0(%rax)
    13a0:	4c 89 62 08          	mov    %r12,0x8(%rdx)
    13a4:	e9 7b ff ff ff       	jmpq   1324 <l2cap_reassemble_sdu+0x204>
			err = -EMSGSIZE;
    13a9:	b8 a6 ff ff ff       	mov    $0xffffffa6,%eax
    13ae:	e9 1a ff ff ff       	jmpq   12cd <l2cap_reassemble_sdu+0x1ad>
    13b3:	0f 1f 00             	nopl   (%rax)
    13b6:	66 2e 0f 1f 84 00 00 	nopw   %cs:0x0(%rax,%rax,1)
    13bd:	00 00 00 

00000000000013c0 <l2cap_send_cmd>:
{
    13c0:	55                   	push   %rbp
    13c1:	48 89 e5             	mov    %rsp,%rbp
    13c4:	41 57                	push   %r15
    13c6:	41 56                	push   %r14
    13c8:	41 55                	push   %r13
    13ca:	41 54                	push   %r12
    13cc:	53                   	push   %rbx
    13cd:	48 83 ec 28          	sub    $0x28,%rsp
    13d1:	e8 00 00 00 00       	callq  13d6 <l2cap_send_cmd+0x16>
	BT_DBG("conn %p, code 0x%2.2x, ident 0x%2.2x, len %d",
    13d6:	f6 05 00 00 00 00 04 	testb  $0x4,0x0(%rip)        # 13dd <l2cap_send_cmd+0x1d>
	struct sk_buff *skb = l2cap_build_cmd(conn, code, ident, len, data);
    13dd:	0f b6 c2             	movzbl %dl,%eax
{
    13e0:	49 89 ff             	mov    %rdi,%r15
    13e3:	89 75 bc             	mov    %esi,-0x44(%rbp)
    13e6:	41 89 d6             	mov    %edx,%r14d
    13e9:	41 89 cc             	mov    %ecx,%r12d
    13ec:	4c 89 45 c8          	mov    %r8,-0x38(%rbp)
	struct sk_buff *skb = l2cap_build_cmd(conn, code, ident, len, data);
    13f0:	89 45 b4             	mov    %eax,-0x4c(%rbp)
	BT_DBG("conn %p, code 0x%2.2x, ident 0x%2.2x, len %d",
    13f3:	0f b7 d9             	movzwl %cx,%ebx
    13f6:	0f 85 c6 01 00 00    	jne    15c2 <l2cap_send_cmd+0x202>
	count = min_t(unsigned int, conn->mtu, len);
    13fc:	41 8b 47 20          	mov    0x20(%r15),%eax
	len = L2CAP_HDR_SIZE + L2CAP_CMD_HDR_SIZE + dlen;
    1400:	83 c3 08             	add    $0x8,%ebx
	return __alloc_skb(size, priority, 0, NUMA_NO_NODE);
    1403:	b9 ff ff ff ff       	mov    $0xffffffff,%ecx
    1408:	be 20 00 00 00       	mov    $0x20,%esi
	count = min_t(unsigned int, conn->mtu, len);
    140d:	39 c3                	cmp    %eax,%ebx
    140f:	0f 46 c3             	cmovbe %ebx,%eax
    1412:	31 d2                	xor    %edx,%edx

static inline struct sk_buff *bt_skb_alloc(unsigned int len, gfp_t how)
{
	struct sk_buff *skb;

	if ((skb = alloc_skb(len + BT_SKB_RESERVE, how))) {
    1414:	8d 78 08             	lea    0x8(%rax),%edi
    1417:	89 45 b8             	mov    %eax,-0x48(%rbp)
    141a:	e8 00 00 00 00       	callq  141f <l2cap_send_cmd+0x5f>
    141f:	48 85 c0             	test   %rax,%rax
    1422:	48 89 45 c0          	mov    %rax,-0x40(%rbp)
    1426:	49 89 c5             	mov    %rax,%r13
    1429:	0f 84 0b 01 00 00    	je     153a <l2cap_send_cmd+0x17a>
 *	Increase the headroom of an empty &sk_buff by reducing the tail
 *	room. This is only allowed for an empty buffer.
 */
static inline void skb_reserve(struct sk_buff *skb, int len)
{
	skb->data += len;
    142f:	48 83 80 e0 00 00 00 	addq   $0x8,0xe0(%rax)
    1436:	08 
	skb->tail += len;
    1437:	83 80 cc 00 00 00 08 	addl   $0x8,0xcc(%rax)
	lh = (struct l2cap_hdr *) skb_put(skb, L2CAP_HDR_SIZE);
    143e:	be 04 00 00 00       	mov    $0x4,%esi
    1443:	48 89 c7             	mov    %rax,%rdi
		skb_reserve(skb, BT_SKB_RESERVE);
		bt_cb(skb)->incoming  = 0;
    1446:	c6 40 29 00          	movb   $0x0,0x29(%rax)
    144a:	e8 00 00 00 00       	callq  144f <l2cap_send_cmd+0x8f>
	lh->len = cpu_to_le16(L2CAP_CMD_HDR_SIZE + dlen);
    144f:	41 8d 54 24 04       	lea    0x4(%r12),%edx
	cmd = (struct l2cap_cmd_hdr *) skb_put(skb, L2CAP_CMD_HDR_SIZE);
    1454:	be 04 00 00 00       	mov    $0x4,%esi
    1459:	4c 89 ef             	mov    %r13,%rdi
	lh->len = cpu_to_le16(L2CAP_CMD_HDR_SIZE + dlen);
    145c:	66 89 10             	mov    %dx,(%rax)
	if (conn->hcon->type == LE_LINK)
    145f:	49 8b 17             	mov    (%r15),%rdx
		lh->cid = cpu_to_le16(L2CAP_CID_LE_SIGNALING);
    1462:	80 7a 21 80          	cmpb   $0x80,0x21(%rdx)
    1466:	0f 94 c2             	sete   %dl
    1469:	0f b6 d2             	movzbl %dl,%edx
    146c:	8d 14 95 01 00 00 00 	lea    0x1(,%rdx,4),%edx
    1473:	66 89 50 02          	mov    %dx,0x2(%rax)
	cmd = (struct l2cap_cmd_hdr *) skb_put(skb, L2CAP_CMD_HDR_SIZE);
    1477:	e8 00 00 00 00       	callq  147c <l2cap_send_cmd+0xbc>
	cmd->ident = ident;
    147c:	0f b6 4d bc          	movzbl -0x44(%rbp),%ecx
	if (dlen) {
    1480:	66 45 85 e4          	test   %r12w,%r12w
	cmd->code  = code;
    1484:	44 88 30             	mov    %r14b,(%rax)
	cmd->len   = cpu_to_le16(dlen);
    1487:	66 44 89 60 02       	mov    %r12w,0x2(%rax)
	cmd->ident = ident;
    148c:	88 48 01             	mov    %cl,0x1(%rax)
	if (dlen) {
    148f:	0f 85 03 01 00 00    	jne    1598 <l2cap_send_cmd+0x1d8>
	return skb->head + skb->end;
    1495:	48 8b 45 c0          	mov    -0x40(%rbp),%rax
    1499:	44 8b a0 d0 00 00 00 	mov    0xd0(%rax),%r12d
    14a0:	4c 03 a0 d8 00 00 00 	add    0xd8(%rax),%r12
	frag = &skb_shinfo(skb)->frag_list;
    14a7:	49 83 c4 08          	add    $0x8,%r12
	while (len) {
    14ab:	2b 58 68             	sub    0x68(%rax),%ebx
    14ae:	75 49                	jne    14f9 <l2cap_send_cmd+0x139>
    14b0:	e9 85 00 00 00       	jmpq   153a <l2cap_send_cmd+0x17a>
    14b5:	0f 1f 00             	nopl   (%rax)
	skb->data += len;
    14b8:	48 83 80 e0 00 00 00 	addq   $0x8,0xe0(%rax)
    14bf:	08 
	skb->tail += len;
    14c0:	83 80 cc 00 00 00 08 	addl   $0x8,0xcc(%rax)
		memcpy(skb_put(*frag, count), data, count);
    14c7:	44 89 ee             	mov    %r13d,%esi
    14ca:	c6 40 29 00          	movb   $0x0,0x29(%rax)
    14ce:	48 89 c7             	mov    %rax,%rdi
		*frag = bt_skb_alloc(count, GFP_ATOMIC);
    14d1:	49 89 04 24          	mov    %rax,(%r12)
		memcpy(skb_put(*frag, count), data, count);
    14d5:	4d 63 f5             	movslq %r13d,%r14
    14d8:	e8 00 00 00 00       	callq  14dd <l2cap_send_cmd+0x11d>
    14dd:	48 8b 75 c8          	mov    -0x38(%rbp),%rsi
    14e1:	4c 89 f2             	mov    %r14,%rdx
    14e4:	48 89 c7             	mov    %rax,%rdi
    14e7:	e8 00 00 00 00       	callq  14ec <l2cap_send_cmd+0x12c>
		data += count;
    14ec:	4c 01 75 c8          	add    %r14,-0x38(%rbp)
	while (len) {
    14f0:	44 29 eb             	sub    %r13d,%ebx
		frag = &(*frag)->next;
    14f3:	4d 8b 24 24          	mov    (%r12),%r12
	while (len) {
    14f7:	74 41                	je     153a <l2cap_send_cmd+0x17a>
		count = min_t(unsigned int, conn->mtu, len);
    14f9:	45 8b 47 20          	mov    0x20(%r15),%r8d
	return __alloc_skb(size, priority, 0, NUMA_NO_NODE);
    14fd:	b9 ff ff ff ff       	mov    $0xffffffff,%ecx
    1502:	be 20 00 00 00       	mov    $0x20,%esi
    1507:	44 39 c3             	cmp    %r8d,%ebx
    150a:	44 0f 46 c3          	cmovbe %ebx,%r8d
    150e:	31 d2                	xor    %edx,%edx
	if ((skb = alloc_skb(len + BT_SKB_RESERVE, how))) {
    1510:	41 8d 78 08          	lea    0x8(%r8),%edi
    1514:	45 89 c5             	mov    %r8d,%r13d
    1517:	e8 00 00 00 00       	callq  151c <l2cap_send_cmd+0x15c>
    151c:	48 85 c0             	test   %rax,%rax
    151f:	75 97                	jne    14b8 <l2cap_send_cmd+0xf8>
	kfree_skb(skb);
    1521:	48 8b 7d c0          	mov    -0x40(%rbp),%rdi
		*frag = bt_skb_alloc(count, GFP_ATOMIC);
    1525:	49 c7 04 24 00 00 00 	movq   $0x0,(%r12)
    152c:	00 
	kfree_skb(skb);
    152d:	e8 00 00 00 00       	callq  1532 <l2cap_send_cmd+0x172>
	return NULL;
    1532:	48 c7 45 c0 00 00 00 	movq   $0x0,-0x40(%rbp)
    1539:	00 
	BT_DBG("code 0x%2.2x", code);
    153a:	f6 05 00 00 00 00 04 	testb  $0x4,0x0(%rip)        # 1541 <l2cap_send_cmd+0x181>
    1541:	0f 85 a3 00 00 00    	jne    15ea <l2cap_send_cmd+0x22a>
	if (!skb)
    1547:	48 8b 4d c0          	mov    -0x40(%rbp),%rcx
    154b:	48 85 c9             	test   %rcx,%rcx
    154e:	74 32                	je     1582 <l2cap_send_cmd+0x1c2>
	if (lmp_no_flush_capable(conn->hcon->hdev))
    1550:	49 8b 07             	mov    (%r15),%rax
	hci_send_acl(conn->hchan, skb, flags);
    1553:	48 89 ce             	mov    %rcx,%rsi
	if (lmp_no_flush_capable(conn->hcon->hdev))
    1556:	48 8b 80 18 04 00 00 	mov    0x418(%rax),%rax
    155d:	0f b6 80 47 02 00 00 	movzbl 0x247(%rax),%eax
	bt_cb(skb)->force_active = BT_POWER_FORCE_ACTIVE_ON;
    1564:	c6 41 2c 01          	movb   $0x1,0x2c(%rcx)
	skb->priority = HCI_PRIO_MAX;
    1568:	c7 41 78 07 00 00 00 	movl   $0x7,0x78(%rcx)
	hci_send_acl(conn->hchan, skb, flags);
    156f:	49 8b 7f 08          	mov    0x8(%r15),%rdi
	if (lmp_no_flush_capable(conn->hcon->hdev))
    1573:	83 e0 40             	and    $0x40,%eax
    1576:	3c 01                	cmp    $0x1,%al
    1578:	19 d2                	sbb    %edx,%edx
    157a:	83 e2 02             	and    $0x2,%edx
	hci_send_acl(conn->hchan, skb, flags);
    157d:	e8 00 00 00 00       	callq  1582 <l2cap_send_cmd+0x1c2>
}
    1582:	48 83 c4 28          	add    $0x28,%rsp
    1586:	5b                   	pop    %rbx
    1587:	41 5c                	pop    %r12
    1589:	41 5d                	pop    %r13
    158b:	41 5e                	pop    %r14
    158d:	41 5f                	pop    %r15
    158f:	5d                   	pop    %rbp
    1590:	c3                   	retq   
    1591:	0f 1f 80 00 00 00 00 	nopl   0x0(%rax)
		count -= L2CAP_HDR_SIZE + L2CAP_CMD_HDR_SIZE;
    1598:	8b 75 b8             	mov    -0x48(%rbp),%esi
		memcpy(skb_put(skb, count), data, count);
    159b:	48 8b 7d c0          	mov    -0x40(%rbp),%rdi
		count -= L2CAP_HDR_SIZE + L2CAP_CMD_HDR_SIZE;
    159f:	83 ee 08             	sub    $0x8,%esi
		memcpy(skb_put(skb, count), data, count);
    15a2:	4c 63 e6             	movslq %esi,%r12
    15a5:	e8 00 00 00 00       	callq  15aa <l2cap_send_cmd+0x1ea>
    15aa:	48 8b 75 c8          	mov    -0x38(%rbp),%rsi
    15ae:	4c 89 e2             	mov    %r12,%rdx
    15b1:	48 89 c7             	mov    %rax,%rdi
    15b4:	e8 00 00 00 00       	callq  15b9 <l2cap_send_cmd+0x1f9>
		data += count;
    15b9:	4c 01 65 c8          	add    %r12,-0x38(%rbp)
    15bd:	e9 d3 fe ff ff       	jmpq   1495 <l2cap_send_cmd+0xd5>
	BT_DBG("conn %p, code 0x%2.2x, ident 0x%2.2x, len %d",
    15c2:	44 0f b6 45 bc       	movzbl -0x44(%rbp),%r8d
    15c7:	8b 4d b4             	mov    -0x4c(%rbp),%ecx
    15ca:	48 89 fa             	mov    %rdi,%rdx
    15cd:	41 89 d9             	mov    %ebx,%r9d
    15d0:	48 c7 c6 00 00 00 00 	mov    $0x0,%rsi
    15d7:	48 c7 c7 00 00 00 00 	mov    $0x0,%rdi
    15de:	31 c0                	xor    %eax,%eax
    15e0:	e8 00 00 00 00       	callq  15e5 <l2cap_send_cmd+0x225>
    15e5:	e9 12 fe ff ff       	jmpq   13fc <l2cap_send_cmd+0x3c>
	BT_DBG("code 0x%2.2x", code);
    15ea:	8b 55 b4             	mov    -0x4c(%rbp),%edx
    15ed:	48 c7 c6 00 00 00 00 	mov    $0x0,%rsi
    15f4:	48 c7 c7 00 00 00 00 	mov    $0x0,%rdi
    15fb:	31 c0                	xor    %eax,%eax
    15fd:	e8 00 00 00 00       	callq  1602 <l2cap_send_cmd+0x242>
    1602:	e9 40 ff ff ff       	jmpq   1547 <l2cap_send_cmd+0x187>
    1607:	66 0f 1f 84 00 00 00 	nopw   0x0(%rax,%rax,1)
    160e:	00 00 

0000000000001610 <l2cap_send_conn_req>:
{
    1610:	55                   	push   %rbp
    1611:	48 89 e5             	mov    %rsp,%rbp
    1614:	41 54                	push   %r12
    1616:	53                   	push   %rbx
    1617:	48 83 ec 10          	sub    $0x10,%rsp
    161b:	e8 00 00 00 00       	callq  1620 <l2cap_send_conn_req+0x10>
	req.scid = cpu_to_le16(chan->scid);
    1620:	0f b7 47 1c          	movzwl 0x1c(%rdi),%eax
	struct l2cap_conn *conn = chan->conn;
    1624:	4c 8b 67 08          	mov    0x8(%rdi),%r12
{
    1628:	48 89 fb             	mov    %rdi,%rbx
	req.scid = cpu_to_le16(chan->scid);
    162b:	66 89 45 ee          	mov    %ax,-0x12(%rbp)
	req.psm  = chan->psm;
    162f:	0f b7 47 18          	movzwl 0x18(%rdi),%eax
	chan->ident = l2cap_get_ident(conn);
    1633:	4c 89 e7             	mov    %r12,%rdi
	req.psm  = chan->psm;
    1636:	66 89 45 ec          	mov    %ax,-0x14(%rbp)
	chan->ident = l2cap_get_ident(conn);
    163a:	e8 71 ee ff ff       	callq  4b0 <l2cap_get_ident>
    163f:	88 43 2b             	mov    %al,0x2b(%rbx)
		asm volatile(LOCK_PREFIX "orb %1,%0"
    1642:	f0 80 8b 80 00 00 00 	lock orb $0x20,0x80(%rbx)
    1649:	20 
	l2cap_send_cmd(conn, chan->ident, L2CAP_CONN_REQ, sizeof(req), &req);
    164a:	0f b6 73 2b          	movzbl 0x2b(%rbx),%esi
    164e:	4c 8d 45 ec          	lea    -0x14(%rbp),%r8
    1652:	4c 89 e7             	mov    %r12,%rdi
    1655:	b9 04 00 00 00       	mov    $0x4,%ecx
    165a:	ba 02 00 00 00       	mov    $0x2,%edx
    165f:	e8 5c fd ff ff       	callq  13c0 <l2cap_send_cmd>
}
    1664:	48 83 c4 10          	add    $0x10,%rsp
    1668:	5b                   	pop    %rbx
    1669:	41 5c                	pop    %r12
    166b:	5d                   	pop    %rbp
    166c:	c3                   	retq   
    166d:	0f 1f 00             	nopl   (%rax)

0000000000001670 <l2cap_build_conf_req>:
{
    1670:	55                   	push   %rbp
    1671:	48 89 e5             	mov    %rsp,%rbp
    1674:	41 55                	push   %r13
    1676:	41 54                	push   %r12
    1678:	53                   	push   %rbx
    1679:	48 83 ec 28          	sub    $0x28,%rsp
    167d:	e8 00 00 00 00       	callq  1682 <l2cap_build_conf_req+0x12>
	struct l2cap_conf_rfc rfc = { .mode = chan->mode };
    1682:	0f b6 47 24          	movzbl 0x24(%rdi),%eax
	BT_DBG("chan %p", chan);
    1686:	f6 05 00 00 00 00 04 	testb  $0x4,0x0(%rip)        # 168d <l2cap_build_conf_req+0x1d>
	struct l2cap_conf_rfc rfc = { .mode = chan->mode };
    168d:	48 c7 45 d7 00 00 00 	movq   $0x0,-0x29(%rbp)
    1694:	00 
{
    1695:	48 89 fb             	mov    %rdi,%rbx
    1698:	49 89 f4             	mov    %rsi,%r12
	struct l2cap_conf_rfc rfc = { .mode = chan->mode };
    169b:	c6 45 df 00          	movb   $0x0,-0x21(%rbp)
    169f:	88 45 d7             	mov    %al,-0x29(%rbp)
	void *ptr = req->data;
    16a2:	48 8d 46 04          	lea    0x4(%rsi),%rax
    16a6:	48 89 45 c8          	mov    %rax,-0x38(%rbp)
	BT_DBG("chan %p", chan);
    16aa:	0f 85 3a 03 00 00    	jne    19ea <l2cap_build_conf_req+0x37a>
	if (chan->num_conf_req || chan->num_conf_rsp)
    16b0:	f7 43 6c 00 ff ff 00 	testl  $0xffff00,0x6c(%rbx)
    16b7:	75 50                	jne    1709 <l2cap_build_conf_req+0x99>
	switch (chan->mode) {
    16b9:	0f b6 43 24          	movzbl 0x24(%rbx),%eax
    16bd:	83 e8 03             	sub    $0x3,%eax
    16c0:	3c 01                	cmp    $0x1,%al
    16c2:	0f 86 a0 00 00 00    	jbe    1768 <l2cap_build_conf_req+0xf8>
    16c8:	48 8b 43 08          	mov    0x8(%rbx),%rax
    16cc:	8b 70 24             	mov    0x24(%rax),%esi
		chan->mode = l2cap_select_mode(rfc.mode, chan->conn->feat_mask);
    16cf:	0f b6 55 d7          	movzbl -0x29(%rbp),%edx
		return L2CAP_MODE_BASIC;
    16d3:	31 c0                	xor    %eax,%eax
	switch (mode) {
    16d5:	8d 4a fd             	lea    -0x3(%rdx),%ecx
    16d8:	80 f9 01             	cmp    $0x1,%cl
    16db:	77 29                	ja     1706 <l2cap_build_conf_req+0x96>
	u32 local_feat_mask = l2cap_feat_mask;
    16dd:	80 3d 00 00 00 00 01 	cmpb   $0x1,0x0(%rip)        # 16e4 <l2cap_build_conf_req+0x74>
    16e4:	0f b7 f6             	movzwl %si,%esi
    16e7:	19 c0                	sbb    %eax,%eax
    16e9:	83 e0 18             	and    $0x18,%eax
    16ec:	83 e8 80             	sub    $0xffffff80,%eax
		return L2CAP_FEAT_STREAMING & feat_mask & local_feat_mask;
    16ef:	21 f0                	and    %esi,%eax
	switch (mode) {
    16f1:	80 fa 04             	cmp    $0x4,%dl
		return L2CAP_FEAT_STREAMING & feat_mask & local_feat_mask;
    16f4:	89 c1                	mov    %eax,%ecx
	switch (mode) {
    16f6:	0f 85 c4 02 00 00    	jne    19c0 <l2cap_build_conf_req+0x350>
		return L2CAP_FEAT_STREAMING & feat_mask & local_feat_mask;
    16fc:	83 e1 10             	and    $0x10,%ecx
		return L2CAP_MODE_BASIC;
    16ff:	31 c0                	xor    %eax,%eax
    1701:	85 c9                	test   %ecx,%ecx
    1703:	0f 45 c2             	cmovne %edx,%eax
		chan->mode = l2cap_select_mode(rfc.mode, chan->conn->feat_mask);
    1706:	88 43 24             	mov    %al,0x24(%rbx)
	if (chan->imtu != L2CAP_DEFAULT_MTU)
    1709:	0f b7 4b 1e          	movzwl 0x1e(%rbx),%ecx
    170d:	66 81 f9 a0 02       	cmp    $0x2a0,%cx
    1712:	74 13                	je     1727 <l2cap_build_conf_req+0xb7>
		l2cap_add_conf_opt(&ptr, L2CAP_CONF_MTU, 2, chan->imtu);
    1714:	48 8d 7d c8          	lea    -0x38(%rbp),%rdi
    1718:	ba 02 00 00 00       	mov    $0x2,%edx
    171d:	be 01 00 00 00       	mov    $0x1,%esi
    1722:	e8 89 ee ff ff       	callq  5b0 <l2cap_add_conf_opt>
	switch (chan->mode) {
    1727:	0f b6 43 24          	movzbl 0x24(%rbx),%eax
    172b:	3c 03                	cmp    $0x3,%al
    172d:	0f 84 5d 01 00 00    	je     1890 <l2cap_build_conf_req+0x220>
    1733:	3c 04                	cmp    $0x4,%al
    1735:	0f 84 b5 00 00 00    	je     17f0 <l2cap_build_conf_req+0x180>
    173b:	84 c0                	test   %al,%al
    173d:	74 61                	je     17a0 <l2cap_build_conf_req+0x130>
	req->dcid  = cpu_to_le16(chan->dcid);
    173f:	0f b7 43 1a          	movzwl 0x1a(%rbx),%eax
    1743:	66 41 89 04 24       	mov    %ax,(%r12)
	req->flags = cpu_to_le16(0);
    1748:	31 c0                	xor    %eax,%eax
    174a:	66 41 89 44 24 02    	mov    %ax,0x2(%r12)
	return ptr - data;
    1750:	48 8b 45 c8          	mov    -0x38(%rbp),%rax
}
    1754:	48 83 c4 28          	add    $0x28,%rsp
    1758:	5b                   	pop    %rbx
	return ptr - data;
    1759:	4c 29 e0             	sub    %r12,%rax
}
    175c:	41 5c                	pop    %r12
    175e:	41 5d                	pop    %r13
    1760:	5d                   	pop    %rbp
    1761:	c3                   	retq   
    1762:	66 0f 1f 44 00 00    	nopw   0x0(%rax,%rax,1)
		(addr[nr / BITS_PER_LONG])) != 0;
    1768:	48 8b 83 80 00 00 00 	mov    0x80(%rbx),%rax
		if (test_bit(CONF_STATE2_DEVICE, &chan->conf_state))
    176f:	a8 80                	test   $0x80,%al
    1771:	75 96                	jne    1709 <l2cap_build_conf_req+0x99>
	return enable_hs && chan->conn->feat_mask & L2CAP_FEAT_EXT_FLOW;
    1773:	80 3d 00 00 00 00 00 	cmpb   $0x0,0x0(%rip)        # 177a <l2cap_build_conf_req+0x10a>
    177a:	48 8b 43 08          	mov    0x8(%rbx),%rax
    177e:	8b 70 24             	mov    0x24(%rax),%esi
    1781:	0f 84 48 ff ff ff    	je     16cf <l2cap_build_conf_req+0x5f>
    1787:	40 f6 c6 40          	test   $0x40,%sil
    178b:	0f 84 3e ff ff ff    	je     16cf <l2cap_build_conf_req+0x5f>
		asm volatile(LOCK_PREFIX "orb %1,%0"
    1791:	f0 80 8b 90 00 00 00 	lock orb $0x20,0x90(%rbx)
    1798:	20 
    1799:	e9 2a ff ff ff       	jmpq   16c8 <l2cap_build_conf_req+0x58>
    179e:	66 90                	xchg   %ax,%ax
		if (!(chan->conn->feat_mask & L2CAP_FEAT_ERTM) &&
    17a0:	48 8b 43 08          	mov    0x8(%rbx),%rax
    17a4:	f6 40 24 18          	testb  $0x18,0x24(%rax)
    17a8:	74 95                	je     173f <l2cap_build_conf_req+0xcf>
		l2cap_add_conf_opt(&ptr, L2CAP_CONF_RFC, sizeof(rfc),
    17aa:	48 8d 4d d7          	lea    -0x29(%rbp),%rcx
    17ae:	48 8d 7d c8          	lea    -0x38(%rbp),%rdi
		rfc.retrans_timeout = 0;
    17b2:	45 31 d2             	xor    %r10d,%r10d
		rfc.monitor_timeout = 0;
    17b5:	45 31 db             	xor    %r11d,%r11d
		rfc.max_pdu_size    = 0;
    17b8:	45 31 ed             	xor    %r13d,%r13d
		l2cap_add_conf_opt(&ptr, L2CAP_CONF_RFC, sizeof(rfc),
    17bb:	ba 09 00 00 00       	mov    $0x9,%edx
    17c0:	be 04 00 00 00       	mov    $0x4,%esi
		rfc.mode            = L2CAP_MODE_BASIC;
    17c5:	c6 45 d7 00          	movb   $0x0,-0x29(%rbp)
		rfc.txwin_size      = 0;
    17c9:	c6 45 d8 00          	movb   $0x0,-0x28(%rbp)
		rfc.max_transmit    = 0;
    17cd:	c6 45 d9 00          	movb   $0x0,-0x27(%rbp)
		rfc.retrans_timeout = 0;
    17d1:	66 44 89 55 da       	mov    %r10w,-0x26(%rbp)
		rfc.monitor_timeout = 0;
    17d6:	66 44 89 5d dc       	mov    %r11w,-0x24(%rbp)
		rfc.max_pdu_size    = 0;
    17db:	66 44 89 6d de       	mov    %r13w,-0x22(%rbp)
		l2cap_add_conf_opt(&ptr, L2CAP_CONF_RFC, sizeof(rfc),
    17e0:	e8 cb ed ff ff       	callq  5b0 <l2cap_add_conf_opt>
		break;
    17e5:	e9 55 ff ff ff       	jmpq   173f <l2cap_build_conf_req+0xcf>
    17ea:	66 0f 1f 44 00 00    	nopw   0x0(%rax,%rax,1)
		size = min_t(u16, L2CAP_DEFAULT_MAX_PDU_SIZE, chan->conn->mtu -
    17f0:	48 8b 43 08          	mov    0x8(%rbx),%rax
		rfc.retrans_timeout = 0;
    17f4:	31 c9                	xor    %ecx,%ecx
		l2cap_add_conf_opt(&ptr, L2CAP_CONF_RFC, sizeof(rfc),
    17f6:	4c 8d 6d c8          	lea    -0x38(%rbp),%r13
		rfc.monitor_timeout = 0;
    17fa:	31 f6                	xor    %esi,%esi
		rfc.retrans_timeout = 0;
    17fc:	66 89 4d da          	mov    %cx,-0x26(%rbp)
		l2cap_add_conf_opt(&ptr, L2CAP_CONF_RFC, sizeof(rfc),
    1800:	48 8d 4d d7          	lea    -0x29(%rbp),%rcx
		rfc.monitor_timeout = 0;
    1804:	66 89 75 dc          	mov    %si,-0x24(%rbp)
		l2cap_add_conf_opt(&ptr, L2CAP_CONF_RFC, sizeof(rfc),
    1808:	4c 89 ef             	mov    %r13,%rdi
    180b:	be 04 00 00 00       	mov    $0x4,%esi
		size = min_t(u16, L2CAP_DEFAULT_MAX_PDU_SIZE, chan->conn->mtu -
    1810:	8b 50 20             	mov    0x20(%rax),%edx
    1813:	b8 f1 03 00 00       	mov    $0x3f1,%eax
		rfc.mode            = L2CAP_MODE_STREAMING;
    1818:	c6 45 d7 04          	movb   $0x4,-0x29(%rbp)
		rfc.txwin_size      = 0;
    181c:	c6 45 d8 00          	movb   $0x0,-0x28(%rbp)
		rfc.max_transmit    = 0;
    1820:	c6 45 d9 00          	movb   $0x0,-0x27(%rbp)
		size = min_t(u16, L2CAP_DEFAULT_MAX_PDU_SIZE, chan->conn->mtu -
    1824:	83 ea 0c             	sub    $0xc,%edx
    1827:	66 81 fa f1 03       	cmp    $0x3f1,%dx
    182c:	0f 46 c2             	cmovbe %edx,%eax
		l2cap_add_conf_opt(&ptr, L2CAP_CONF_RFC, sizeof(rfc),
    182f:	ba 09 00 00 00       	mov    $0x9,%edx
		rfc.max_pdu_size = cpu_to_le16(size);
    1834:	66 89 45 de          	mov    %ax,-0x22(%rbp)
		l2cap_add_conf_opt(&ptr, L2CAP_CONF_RFC, sizeof(rfc),
    1838:	e8 73 ed ff ff       	callq  5b0 <l2cap_add_conf_opt>
		(addr[nr / BITS_PER_LONG])) != 0;
    183d:	48 8b 83 90 00 00 00 	mov    0x90(%rbx),%rax
		if (test_bit(FLAG_EFS_ENABLE, &chan->flags))
    1844:	a8 20                	test   $0x20,%al
    1846:	0f 85 64 01 00 00    	jne    19b0 <l2cap_build_conf_req+0x340>
		if (!(chan->conn->feat_mask & L2CAP_FEAT_FCS))
    184c:	48 8b 43 08          	mov    0x8(%rbx),%rax
    1850:	f6 40 24 20          	testb  $0x20,0x24(%rax)
    1854:	0f 84 e5 fe ff ff    	je     173f <l2cap_build_conf_req+0xcf>
		if (chan->fcs == L2CAP_FCS_NONE ||
    185a:	80 7b 6f 00          	cmpb   $0x0,0x6f(%rbx)
    185e:	74 0f                	je     186f <l2cap_build_conf_req+0x1ff>
    1860:	48 8b 83 80 00 00 00 	mov    0x80(%rbx),%rax
    1867:	a8 40                	test   $0x40,%al
    1869:	0f 84 d0 fe ff ff    	je     173f <l2cap_build_conf_req+0xcf>
			chan->fcs = L2CAP_FCS_NONE;
    186f:	c6 43 6f 00          	movb   $0x0,0x6f(%rbx)
			l2cap_add_conf_opt(&ptr, L2CAP_CONF_FCS, 1, chan->fcs);
    1873:	31 c9                	xor    %ecx,%ecx
    1875:	ba 01 00 00 00       	mov    $0x1,%edx
    187a:	be 05 00 00 00       	mov    $0x5,%esi
    187f:	4c 89 ef             	mov    %r13,%rdi
    1882:	e8 29 ed ff ff       	callq  5b0 <l2cap_add_conf_opt>
    1887:	e9 b3 fe ff ff       	jmpq   173f <l2cap_build_conf_req+0xcf>
    188c:	0f 1f 40 00          	nopl   0x0(%rax)
		rfc.max_transmit    = chan->max_tx;
    1890:	0f b6 43 74          	movzbl 0x74(%rbx),%eax
		size = min_t(u16, L2CAP_DEFAULT_MAX_PDU_SIZE, chan->conn->mtu -
    1894:	48 8b 4b 08          	mov    0x8(%rbx),%rcx
		rfc.retrans_timeout = 0;
    1898:	45 31 c0             	xor    %r8d,%r8d
		rfc.monitor_timeout = 0;
    189b:	45 31 c9             	xor    %r9d,%r9d
		rfc.mode            = L2CAP_MODE_ERTM;
    189e:	c6 45 d7 03          	movb   $0x3,-0x29(%rbp)
		rfc.retrans_timeout = 0;
    18a2:	66 44 89 45 da       	mov    %r8w,-0x26(%rbp)
		rfc.monitor_timeout = 0;
    18a7:	66 44 89 4d dc       	mov    %r9w,-0x24(%rbp)
		rfc.max_transmit    = chan->max_tx;
    18ac:	88 45 d9             	mov    %al,-0x27(%rbp)
		size = min_t(u16, L2CAP_DEFAULT_MAX_PDU_SIZE, chan->conn->mtu -
    18af:	0f b7 41 20          	movzwl 0x20(%rcx),%eax
    18b3:	8d 50 f4             	lea    -0xc(%rax),%edx
    18b6:	b8 f1 03 00 00       	mov    $0x3f1,%eax
    18bb:	66 81 fa f1 03       	cmp    $0x3f1,%dx
    18c0:	0f 46 c2             	cmovbe %edx,%eax
	if (chan->tx_win > L2CAP_DEFAULT_TX_WINDOW &&
    18c3:	0f b7 53 70          	movzwl 0x70(%rbx),%edx
		rfc.max_pdu_size = cpu_to_le16(size);
    18c7:	66 89 45 de          	mov    %ax,-0x22(%rbp)
	if (chan->tx_win > L2CAP_DEFAULT_TX_WINDOW &&
    18cb:	66 83 fa 3f          	cmp    $0x3f,%dx
    18cf:	76 17                	jbe    18e8 <l2cap_build_conf_req+0x278>
	return enable_hs && chan->conn->feat_mask & L2CAP_FEAT_EXT_WINDOW;
    18d1:	80 3d 00 00 00 00 00 	cmpb   $0x0,0x0(%rip)        # 18d8 <l2cap_build_conf_req+0x268>
    18d8:	74 0e                	je     18e8 <l2cap_build_conf_req+0x278>
    18da:	f6 41 25 01          	testb  $0x1,0x25(%rcx)
    18de:	0f 85 ec 00 00 00    	jne    19d0 <l2cap_build_conf_req+0x360>
    18e4:	0f 1f 40 00          	nopl   0x0(%rax)
		chan->tx_win = min_t(u16, chan->tx_win,
    18e8:	b8 3f 00 00 00       	mov    $0x3f,%eax
    18ed:	66 83 fa 3f          	cmp    $0x3f,%dx
		chan->tx_win_max = L2CAP_DEFAULT_TX_WINDOW;
    18f1:	bf 3f 00 00 00       	mov    $0x3f,%edi
		chan->tx_win = min_t(u16, chan->tx_win,
    18f6:	0f 46 c2             	cmovbe %edx,%eax
		chan->tx_win_max = L2CAP_DEFAULT_TX_WINDOW;
    18f9:	66 89 7b 72          	mov    %di,0x72(%rbx)
		chan->tx_win = min_t(u16, chan->tx_win,
    18fd:	66 89 43 70          	mov    %ax,0x70(%rbx)
		rfc.txwin_size = min_t(u16, chan->tx_win,
    1901:	66 83 f8 3f          	cmp    $0x3f,%ax
    1905:	ba 3f 00 00 00       	mov    $0x3f,%edx
		l2cap_add_conf_opt(&ptr, L2CAP_CONF_RFC, sizeof(rfc),
    190a:	4c 8d 6d c8          	lea    -0x38(%rbp),%r13
		rfc.txwin_size = min_t(u16, chan->tx_win,
    190e:	0f 46 d0             	cmovbe %eax,%edx
		l2cap_add_conf_opt(&ptr, L2CAP_CONF_RFC, sizeof(rfc),
    1911:	48 8d 4d d7          	lea    -0x29(%rbp),%rcx
    1915:	be 04 00 00 00       	mov    $0x4,%esi
		rfc.txwin_size = min_t(u16, chan->tx_win,
    191a:	88 55 d8             	mov    %dl,-0x28(%rbp)
		l2cap_add_conf_opt(&ptr, L2CAP_CONF_RFC, sizeof(rfc),
    191d:	4c 89 ef             	mov    %r13,%rdi
    1920:	ba 09 00 00 00       	mov    $0x9,%edx
    1925:	e8 86 ec ff ff       	callq  5b0 <l2cap_add_conf_opt>
    192a:	48 8b 83 90 00 00 00 	mov    0x90(%rbx),%rax
		if (test_bit(FLAG_EFS_ENABLE, &chan->flags))
    1931:	a8 20                	test   $0x20,%al
    1933:	75 6b                	jne    19a0 <l2cap_build_conf_req+0x330>
		if (!(chan->conn->feat_mask & L2CAP_FEAT_FCS))
    1935:	48 8b 43 08          	mov    0x8(%rbx),%rax
    1939:	f6 40 24 20          	testb  $0x20,0x24(%rax)
    193d:	0f 84 fc fd ff ff    	je     173f <l2cap_build_conf_req+0xcf>
		if (chan->fcs == L2CAP_FCS_NONE ||
    1943:	80 7b 6f 00          	cmpb   $0x0,0x6f(%rbx)
    1947:	74 0b                	je     1954 <l2cap_build_conf_req+0x2e4>
    1949:	48 8b 83 80 00 00 00 	mov    0x80(%rbx),%rax
    1950:	a8 40                	test   $0x40,%al
    1952:	74 18                	je     196c <l2cap_build_conf_req+0x2fc>
			chan->fcs = L2CAP_FCS_NONE;
    1954:	c6 43 6f 00          	movb   $0x0,0x6f(%rbx)
			l2cap_add_conf_opt(&ptr, L2CAP_CONF_FCS, 1, chan->fcs);
    1958:	31 c9                	xor    %ecx,%ecx
    195a:	ba 01 00 00 00       	mov    $0x1,%edx
    195f:	be 05 00 00 00       	mov    $0x5,%esi
    1964:	4c 89 ef             	mov    %r13,%rdi
    1967:	e8 44 ec ff ff       	callq  5b0 <l2cap_add_conf_opt>
    196c:	48 8b 83 90 00 00 00 	mov    0x90(%rbx),%rax
		if (test_bit(FLAG_EXT_CTRL, &chan->flags))
    1973:	a8 10                	test   $0x10,%al
    1975:	0f 84 c4 fd ff ff    	je     173f <l2cap_build_conf_req+0xcf>
			l2cap_add_conf_opt(&ptr, L2CAP_CONF_EWS, 2,
    197b:	0f b7 4b 70          	movzwl 0x70(%rbx),%ecx
    197f:	ba 02 00 00 00       	mov    $0x2,%edx
    1984:	be 07 00 00 00       	mov    $0x7,%esi
    1989:	4c 89 ef             	mov    %r13,%rdi
    198c:	e8 1f ec ff ff       	callq  5b0 <l2cap_add_conf_opt>
    1991:	e9 a9 fd ff ff       	jmpq   173f <l2cap_build_conf_req+0xcf>
    1996:	66 2e 0f 1f 84 00 00 	nopw   %cs:0x0(%rax,%rax,1)
    199d:	00 00 00 
			l2cap_add_opt_efs(&ptr, chan);
    19a0:	48 89 de             	mov    %rbx,%rsi
    19a3:	4c 89 ef             	mov    %r13,%rdi
    19a6:	e8 d5 ec ff ff       	callq  680 <l2cap_add_opt_efs>
    19ab:	eb 88                	jmp    1935 <l2cap_build_conf_req+0x2c5>
    19ad:	0f 1f 00             	nopl   (%rax)
			l2cap_add_opt_efs(&ptr, chan);
    19b0:	48 89 de             	mov    %rbx,%rsi
    19b3:	4c 89 ef             	mov    %r13,%rdi
    19b6:	e8 c5 ec ff ff       	callq  680 <l2cap_add_opt_efs>
    19bb:	e9 8c fe ff ff       	jmpq   184c <l2cap_build_conf_req+0x1dc>
		return L2CAP_FEAT_ERTM & feat_mask & local_feat_mask;
    19c0:	83 e1 08             	and    $0x8,%ecx
    19c3:	e9 37 fd ff ff       	jmpq   16ff <l2cap_build_conf_req+0x8f>
    19c8:	0f 1f 84 00 00 00 00 	nopl   0x0(%rax,%rax,1)
    19cf:	00 
		asm volatile(LOCK_PREFIX "orb %1,%0"
    19d0:	f0 80 8b 90 00 00 00 	lock orb $0x10,0x90(%rbx)
    19d7:	10 
		chan->tx_win_max = L2CAP_DEFAULT_EXT_WINDOW;
    19d8:	ba ff 3f 00 00       	mov    $0x3fff,%edx
    19dd:	0f b7 43 70          	movzwl 0x70(%rbx),%eax
    19e1:	66 89 53 72          	mov    %dx,0x72(%rbx)
    19e5:	e9 17 ff ff ff       	jmpq   1901 <l2cap_build_conf_req+0x291>
	BT_DBG("chan %p", chan);
    19ea:	48 89 fa             	mov    %rdi,%rdx
    19ed:	48 c7 c6 00 00 00 00 	mov    $0x0,%rsi
    19f4:	48 c7 c7 00 00 00 00 	mov    $0x0,%rdi
    19fb:	31 c0                	xor    %eax,%eax
    19fd:	e8 00 00 00 00       	callq  1a02 <l2cap_build_conf_req+0x392>
    1a02:	e9 a9 fc ff ff       	jmpq   16b0 <l2cap_build_conf_req+0x40>
    1a07:	66 0f 1f 84 00 00 00 	nopw   0x0(%rax,%rax,1)
    1a0e:	00 00 

0000000000001a10 <l2cap_parse_conf_req>:
{
    1a10:	55                   	push   %rbp
    1a11:	48 89 e5             	mov    %rsp,%rbp
    1a14:	41 57                	push   %r15
    1a16:	41 56                	push   %r14
    1a18:	41 55                	push   %r13
    1a1a:	41 54                	push   %r12
    1a1c:	53                   	push   %rbx
    1a1d:	48 83 ec 68          	sub    $0x68,%rsp
    1a21:	e8 00 00 00 00       	callq  1a26 <l2cap_parse_conf_req+0x16>
	int len = chan->conf_len;
    1a26:	0f b6 5f 6c          	movzbl 0x6c(%rdi),%ebx
{
    1a2a:	48 89 f0             	mov    %rsi,%rax
    1a2d:	49 89 fa             	mov    %rdi,%r10
    1a30:	48 89 75 88          	mov    %rsi,-0x78(%rbp)
	void *ptr = rsp->data;
    1a34:	48 83 c0 06          	add    $0x6,%rax
	BT_DBG("chan %p", chan);
    1a38:	f6 05 00 00 00 00 04 	testb  $0x4,0x0(%rip)        # 1a3f <l2cap_parse_conf_req+0x2f>
	void *req = chan->conf_req;
    1a3f:	4c 8d 4f 2c          	lea    0x2c(%rdi),%r9
	void *ptr = rsp->data;
    1a43:	48 89 45 a8          	mov    %rax,-0x58(%rbp)
	struct l2cap_conf_rfc rfc = { .mode = L2CAP_MODE_BASIC };
    1a47:	48 c7 45 b7 00 00 00 	movq   $0x0,-0x49(%rbp)
    1a4e:	00 
    1a4f:	c6 45 bf 00          	movb   $0x0,-0x41(%rbp)
	BT_DBG("chan %p", chan);
    1a53:	0f 85 af 05 00 00    	jne    2008 <l2cap_parse_conf_req+0x5f8>
	while (len >= L2CAP_CONF_OPT_SIZE) {
    1a59:	45 31 f6             	xor    %r14d,%r14d
    1a5c:	83 fb 01             	cmp    $0x1,%ebx
    1a5f:	41 bb a0 02 00 00    	mov    $0x2a0,%r11d
    1a65:	66 44 89 75 98       	mov    %r14w,-0x68(%rbp)
    1a6a:	c6 45 90 00          	movb   $0x0,-0x70(%rbp)
    1a6e:	0f 8e ac 00 00 00    	jle    1b20 <l2cap_parse_conf_req+0x110>
    1a74:	0f 1f 40 00          	nopl   0x0(%rax)
	len = L2CAP_CONF_OPT_SIZE + opt->len;
    1a78:	41 0f b6 41 01       	movzbl 0x1(%r9),%eax
	*type = opt->type;
    1a7d:	45 0f b6 31          	movzbl (%r9),%r14d
	len = L2CAP_CONF_OPT_SIZE + opt->len;
    1a81:	44 0f b6 e8          	movzbl %al,%r13d
    1a85:	45 8d 65 02          	lea    0x2(%r13),%r12d
	*ptr += len;
    1a89:	4d 63 fc             	movslq %r12d,%r15
    1a8c:	4d 01 cf             	add    %r9,%r15
	switch (opt->len) {
    1a8f:	3c 02                	cmp    $0x2,%al
    1a91:	0f 84 e9 01 00 00    	je     1c80 <l2cap_parse_conf_req+0x270>
    1a97:	0f 86 b3 01 00 00    	jbe    1c50 <l2cap_parse_conf_req+0x240>
    1a9d:	3c 04                	cmp    $0x4,%al
    1a9f:	0f 84 cb 01 00 00    	je     1c70 <l2cap_parse_conf_req+0x260>
    1aa5:	3c 05                	cmp    $0x5,%al
    1aa7:	0f 85 b3 01 00 00    	jne    1c60 <l2cap_parse_conf_req+0x250>
static inline u32 get_unaligned_le32(const void *p)
{
	return le32_to_cpup((__le32 *)p);
}

static inline u64 get_unaligned_le64(const void *p)
    1aad:	4d 8b 49 02          	mov    0x2(%r9),%r9
	BT_DBG("type 0x%2.2x len %d val 0x%lx", *type, opt->len, *val);
    1ab1:	f6 05 00 00 00 00 04 	testb  $0x4,0x0(%rip)        # 1ab8 <l2cap_parse_conf_req+0xa8>
    1ab8:	0f 85 fd 04 00 00    	jne    1fbb <l2cap_parse_conf_req+0x5ab>
		type &= L2CAP_CONF_MASK;
    1abe:	44 89 f0             	mov    %r14d,%eax
		len -= l2cap_get_conf_opt(&req, &type, &olen, &val);
    1ac1:	44 29 e3             	sub    %r12d,%ebx
		type &= L2CAP_CONF_MASK;
    1ac4:	83 e0 7f             	and    $0x7f,%eax
		switch (type) {
    1ac7:	3c 07                	cmp    $0x7,%al
    1ac9:	77 0d                	ja     1ad8 <l2cap_parse_conf_req+0xc8>
    1acb:	0f b6 d0             	movzbl %al,%edx
    1ace:	ff 24 d5 00 00 00 00 	jmpq   *0x0(,%rdx,8)
    1ad5:	0f 1f 00             	nopl   (%rax)
			if (hint)
    1ad8:	45 84 f6             	test   %r14b,%r14b
    1adb:	78 23                	js     1b00 <l2cap_parse_conf_req+0xf0>
			*((u8 *) ptr++) = type;
    1add:	48 8b 55 a8          	mov    -0x58(%rbp),%rdx
			result = L2CAP_CONF_UNKNOWN;
    1ae1:	41 bc 03 00 00 00    	mov    $0x3,%r12d
    1ae7:	66 44 89 65 98       	mov    %r12w,-0x68(%rbp)
			*((u8 *) ptr++) = type;
    1aec:	48 8d 4a 01          	lea    0x1(%rdx),%rcx
    1af0:	48 89 4d a8          	mov    %rcx,-0x58(%rbp)
    1af4:	88 02                	mov    %al,(%rdx)
    1af6:	66 2e 0f 1f 84 00 00 	nopw   %cs:0x0(%rax,%rax,1)
    1afd:	00 00 00 
	while (len >= L2CAP_CONF_OPT_SIZE) {
    1b00:	83 fb 01             	cmp    $0x1,%ebx
    1b03:	7e 1b                	jle    1b20 <l2cap_parse_conf_req+0x110>
    1b05:	4d 89 f9             	mov    %r15,%r9
    1b08:	e9 6b ff ff ff       	jmpq   1a78 <l2cap_parse_conf_req+0x68>
    1b0d:	0f 1f 00             	nopl   (%rax)
    1b10:	83 fb 01             	cmp    $0x1,%ebx
			chan->flush_to = val;
    1b13:	66 45 89 4a 22       	mov    %r9w,0x22(%r10)
	while (len >= L2CAP_CONF_OPT_SIZE) {
    1b18:	7f eb                	jg     1b05 <l2cap_parse_conf_req+0xf5>
    1b1a:	66 0f 1f 44 00 00    	nopw   0x0(%rax,%rax,1)
	if (chan->num_conf_rsp || chan->num_conf_req > 1)
    1b20:	41 0f b6 42 6e       	movzbl 0x6e(%r10),%eax
    1b25:	84 c0                	test   %al,%al
    1b27:	0f 84 63 01 00 00    	je     1c90 <l2cap_parse_conf_req+0x280>
    1b2d:	0f b6 4d b7          	movzbl -0x49(%rbp),%ecx
    1b31:	41 0f b6 52 24       	movzbl 0x24(%r10),%edx
	if (chan->mode != rfc.mode) {
    1b36:	38 ca                	cmp    %cl,%dl
    1b38:	0f 84 c2 01 00 00    	je     1d00 <l2cap_parse_conf_req+0x2f0>
		if (chan->num_conf_rsp == 1)
    1b3e:	3c 01                	cmp    $0x1,%al
    1b40:	4c 89 55 90          	mov    %r10,-0x70(%rbp)
		rfc.mode = chan->mode;
    1b44:	88 55 b7             	mov    %dl,-0x49(%rbp)
		if (chan->num_conf_rsp == 1)
    1b47:	0f 84 c5 03 00 00    	je     1f12 <l2cap_parse_conf_req+0x502>
		l2cap_add_conf_opt(&ptr, L2CAP_CONF_RFC,
    1b4d:	48 8d 4d b7          	lea    -0x49(%rbp),%rcx
    1b51:	48 8d 7d a8          	lea    -0x58(%rbp),%rdi
    1b55:	ba 09 00 00 00       	mov    $0x9,%edx
    1b5a:	be 04 00 00 00       	mov    $0x4,%esi
    1b5f:	e8 4c ea ff ff       	callq  5b0 <l2cap_add_conf_opt>
		result = L2CAP_CONF_UNACCEPT;
    1b64:	41 ba 01 00 00 00    	mov    $0x1,%r10d
    1b6a:	66 44 89 55 98       	mov    %r10w,-0x68(%rbp)
    1b6f:	4c 8b 55 90          	mov    -0x70(%rbp),%r10
	rsp->scid   = cpu_to_le16(chan->dcid);
    1b73:	41 0f b7 42 1a       	movzwl 0x1a(%r10),%eax
    1b78:	48 8b 7d 88          	mov    -0x78(%rbp),%rdi
    1b7c:	66 89 07             	mov    %ax,(%rdi)
	rsp->result = cpu_to_le16(result);
    1b7f:	0f b7 45 98          	movzwl -0x68(%rbp),%eax
    1b83:	66 89 47 04          	mov    %ax,0x4(%rdi)
	rsp->flags  = cpu_to_le16(0x0000);
    1b87:	31 c0                	xor    %eax,%eax
    1b89:	66 89 47 02          	mov    %ax,0x2(%rdi)
	return ptr - data;
    1b8d:	8b 45 a8             	mov    -0x58(%rbp),%eax
}
    1b90:	48 83 c4 68          	add    $0x68,%rsp
    1b94:	5b                   	pop    %rbx
    1b95:	41 5c                	pop    %r12
    1b97:	41 5d                	pop    %r13
    1b99:	41 5e                	pop    %r14
    1b9b:	41 5f                	pop    %r15
	return ptr - data;
    1b9d:	29 f8                	sub    %edi,%eax
}
    1b9f:	5d                   	pop    %rbp
    1ba0:	c3                   	retq   
    1ba1:	0f 1f 80 00 00 00 00 	nopl   0x0(%rax)
			mtu = val;
    1ba8:	45 89 cb             	mov    %r9d,%r11d
			break;
    1bab:	e9 50 ff ff ff       	jmpq   1b00 <l2cap_parse_conf_req+0xf0>
			if (!enable_hs)
    1bb0:	80 3d 00 00 00 00 00 	cmpb   $0x0,0x0(%rip)        # 1bb7 <l2cap_parse_conf_req+0x1a7>
    1bb7:	0f 84 55 03 00 00    	je     1f12 <l2cap_parse_conf_req+0x502>
    1bbd:	f0 41 80 8a 90 00 00 	lock orb $0x10,0x90(%r10)
    1bc4:	00 10 
    1bc6:	f0 41 80 8a 81 00 00 	lock orb $0x1,0x81(%r10)
    1bcd:	00 01 
			chan->tx_win_max = L2CAP_DEFAULT_EXT_WINDOW;
    1bcf:	41 bd ff 3f 00 00    	mov    $0x3fff,%r13d
			chan->remote_tx_win = val;
    1bd5:	66 45 89 8a c8 00 00 	mov    %r9w,0xc8(%r10)
    1bdc:	00 
			chan->tx_win_max = L2CAP_DEFAULT_EXT_WINDOW;
    1bdd:	66 45 89 6a 72       	mov    %r13w,0x72(%r10)
			break;
    1be2:	e9 19 ff ff ff       	jmpq   1b00 <l2cap_parse_conf_req+0xf0>
    1be7:	66 0f 1f 84 00 00 00 	nopw   0x0(%rax,%rax,1)
    1bee:	00 00 
			if (olen == sizeof(efs))
    1bf0:	41 83 fd 10          	cmp    $0x10,%r13d
			remote_efs = 1;
    1bf4:	c6 45 90 01          	movb   $0x1,-0x70(%rbp)
			if (olen == sizeof(efs))
    1bf8:	0f 85 02 ff ff ff    	jne    1b00 <l2cap_parse_conf_req+0xf0>
				memcpy(&efs, (void *) val, olen);
    1bfe:	49 8b 01             	mov    (%r9),%rax
    1c01:	49 8b 51 08          	mov    0x8(%r9),%rdx
    1c05:	48 89 45 c0          	mov    %rax,-0x40(%rbp)
    1c09:	48 89 55 c8          	mov    %rdx,-0x38(%rbp)
    1c0d:	e9 ee fe ff ff       	jmpq   1b00 <l2cap_parse_conf_req+0xf0>
    1c12:	66 0f 1f 44 00 00    	nopw   0x0(%rax,%rax,1)
			if (val == L2CAP_FCS_NONE)
    1c18:	4d 85 c9             	test   %r9,%r9
    1c1b:	0f 85 df fe ff ff    	jne    1b00 <l2cap_parse_conf_req+0xf0>
    1c21:	f0 41 80 8a 80 00 00 	lock orb $0x40,0x80(%r10)
    1c28:	00 40 
    1c2a:	e9 d1 fe ff ff       	jmpq   1b00 <l2cap_parse_conf_req+0xf0>
    1c2f:	90                   	nop
			if (olen == sizeof(rfc))
    1c30:	41 83 fd 09          	cmp    $0x9,%r13d
    1c34:	0f 85 c6 fe ff ff    	jne    1b00 <l2cap_parse_conf_req+0xf0>
				memcpy(&rfc, (void *) val, olen);
    1c3a:	49 8b 01             	mov    (%r9),%rax
    1c3d:	48 89 45 b7          	mov    %rax,-0x49(%rbp)
    1c41:	41 0f b6 41 08       	movzbl 0x8(%r9),%eax
    1c46:	88 45 bf             	mov    %al,-0x41(%rbp)
    1c49:	e9 b2 fe ff ff       	jmpq   1b00 <l2cap_parse_conf_req+0xf0>
    1c4e:	66 90                	xchg   %ax,%ax
	switch (opt->len) {
    1c50:	3c 01                	cmp    $0x1,%al
    1c52:	75 0c                	jne    1c60 <l2cap_parse_conf_req+0x250>
		*val = *((u8 *) opt->val);
    1c54:	45 0f b6 49 02       	movzbl 0x2(%r9),%r9d
    1c59:	e9 53 fe ff ff       	jmpq   1ab1 <l2cap_parse_conf_req+0xa1>
    1c5e:	66 90                	xchg   %ax,%ax
		*val = (unsigned long) opt->val;
    1c60:	49 83 c1 02          	add    $0x2,%r9
    1c64:	e9 48 fe ff ff       	jmpq   1ab1 <l2cap_parse_conf_req+0xa1>
    1c69:	0f 1f 80 00 00 00 00 	nopl   0x0(%rax)
		*val = get_unaligned_le32(opt->val);
    1c70:	45 8b 49 02          	mov    0x2(%r9),%r9d
    1c74:	e9 38 fe ff ff       	jmpq   1ab1 <l2cap_parse_conf_req+0xa1>
    1c79:	0f 1f 80 00 00 00 00 	nopl   0x0(%rax)
		*val = get_unaligned_le16(opt->val);
    1c80:	45 0f b7 49 02       	movzwl 0x2(%r9),%r9d
    1c85:	e9 27 fe ff ff       	jmpq   1ab1 <l2cap_parse_conf_req+0xa1>
    1c8a:	66 0f 1f 44 00 00    	nopw   0x0(%rax,%rax,1)
	if (chan->num_conf_rsp || chan->num_conf_req > 1)
    1c90:	41 80 7a 6d 01       	cmpb   $0x1,0x6d(%r10)
    1c95:	0f 87 92 fe ff ff    	ja     1b2d <l2cap_parse_conf_req+0x11d>
	switch (chan->mode) {
    1c9b:	41 0f b6 52 24       	movzbl 0x24(%r10),%edx
    1ca0:	8d 4a fd             	lea    -0x3(%rdx),%ecx
    1ca3:	80 f9 01             	cmp    $0x1,%cl
    1ca6:	76 09                	jbe    1cb1 <l2cap_parse_conf_req+0x2a1>
    1ca8:	0f b6 4d b7          	movzbl -0x49(%rbp),%ecx
    1cac:	e9 85 fe ff ff       	jmpq   1b36 <l2cap_parse_conf_req+0x126>
		(addr[nr / BITS_PER_LONG])) != 0;
    1cb1:	49 8b 8a 80 00 00 00 	mov    0x80(%r10),%rcx
		if (!test_bit(CONF_STATE2_DEVICE, &chan->conf_state)) {
    1cb8:	81 e1 80 00 00 00    	and    $0x80,%ecx
    1cbe:	0f 84 b5 02 00 00    	je     1f79 <l2cap_parse_conf_req+0x569>
		if (remote_efs) {
    1cc4:	80 7d 90 00          	cmpb   $0x0,-0x70(%rbp)
    1cc8:	74 29                	je     1cf3 <l2cap_parse_conf_req+0x2e3>
	return enable_hs && chan->conn->feat_mask & L2CAP_FEAT_EXT_FLOW;
    1cca:	80 3d 00 00 00 00 00 	cmpb   $0x0,0x0(%rip)        # 1cd1 <l2cap_parse_conf_req+0x2c1>
    1cd1:	0f 84 3b 02 00 00    	je     1f12 <l2cap_parse_conf_req+0x502>
    1cd7:	49 8b 42 08          	mov    0x8(%r10),%rax
    1cdb:	f6 40 24 40          	testb  $0x40,0x24(%rax)
    1cdf:	0f 84 2d 02 00 00    	je     1f12 <l2cap_parse_conf_req+0x502>
		asm volatile(LOCK_PREFIX "orb %1,%0"
    1ce5:	f0 41 80 8a 90 00 00 	lock orb $0x20,0x90(%r10)
    1cec:	00 20 
    1cee:	41 0f b6 52 24       	movzbl 0x24(%r10),%edx
		if (chan->mode != rfc.mode)
    1cf3:	38 55 b7             	cmp    %dl,-0x49(%rbp)
    1cf6:	0f 85 16 02 00 00    	jne    1f12 <l2cap_parse_conf_req+0x502>
    1cfc:	0f 1f 40 00          	nopl   0x0(%rax)
	if (result == L2CAP_CONF_SUCCESS) {
    1d00:	66 83 7d 98 00       	cmpw   $0x0,-0x68(%rbp)
    1d05:	0f 85 68 fe ff ff    	jne    1b73 <l2cap_parse_conf_req+0x163>
		if (mtu < L2CAP_DEFAULT_MIN_MTU)
    1d0b:	66 41 83 fb 2f       	cmp    $0x2f,%r11w
    1d10:	0f 86 c2 00 00 00    	jbe    1dd8 <l2cap_parse_conf_req+0x3c8>
			chan->omtu = mtu;
    1d16:	66 45 89 5a 20       	mov    %r11w,0x20(%r10)
    1d1b:	f0 41 80 8a 80 00 00 	lock orb $0x8,0x80(%r10)
    1d22:	00 08 
		l2cap_add_conf_opt(&ptr, L2CAP_CONF_MTU, 2, chan->omtu);
    1d24:	41 0f b7 4a 20       	movzwl 0x20(%r10),%ecx
    1d29:	48 8d 7d a8          	lea    -0x58(%rbp),%rdi
    1d2d:	ba 02 00 00 00       	mov    $0x2,%edx
    1d32:	be 01 00 00 00       	mov    $0x1,%esi
    1d37:	4c 89 55 80          	mov    %r10,-0x80(%rbp)
    1d3b:	e8 70 e8 ff ff       	callq  5b0 <l2cap_add_conf_opt>
		if (remote_efs) {
    1d40:	80 7d 90 00          	cmpb   $0x0,-0x70(%rbp)
    1d44:	4c 8b 55 80          	mov    -0x80(%rbp),%r10
    1d48:	74 56                	je     1da0 <l2cap_parse_conf_req+0x390>
			if (chan->local_stype != L2CAP_SERV_NOTRAFIC &&
    1d4a:	41 0f b6 82 cf 00 00 	movzbl 0xcf(%r10),%eax
    1d51:	00 
    1d52:	84 c0                	test   %al,%al
    1d54:	0f 84 8e 00 00 00    	je     1de8 <l2cap_parse_conf_req+0x3d8>
					efs.stype != L2CAP_SERV_NOTRAFIC &&
    1d5a:	0f b6 55 c1          	movzbl -0x3f(%rbp),%edx
			if (chan->local_stype != L2CAP_SERV_NOTRAFIC &&
    1d5e:	84 d2                	test   %dl,%dl
    1d60:	0f 84 82 00 00 00    	je     1de8 <l2cap_parse_conf_req+0x3d8>
					efs.stype != L2CAP_SERV_NOTRAFIC &&
    1d66:	38 d0                	cmp    %dl,%al
    1d68:	74 7e                	je     1de8 <l2cap_parse_conf_req+0x3d8>
				if (chan->num_conf_req >= 1)
    1d6a:	41 80 7a 6d 00       	cmpb   $0x0,0x6d(%r10)
    1d6f:	4c 89 55 90          	mov    %r10,-0x70(%rbp)
    1d73:	0f 85 99 01 00 00    	jne    1f12 <l2cap_parse_conf_req+0x502>
				l2cap_add_conf_opt(&ptr, L2CAP_CONF_EFS,
    1d79:	48 8d 4d c0          	lea    -0x40(%rbp),%rcx
    1d7d:	48 8d 7d a8          	lea    -0x58(%rbp),%rdi
    1d81:	ba 10 00 00 00       	mov    $0x10,%edx
    1d86:	be 06 00 00 00       	mov    $0x6,%esi
    1d8b:	e8 20 e8 ff ff       	callq  5b0 <l2cap_add_conf_opt>
    1d90:	4c 8b 55 90          	mov    -0x70(%rbp),%r10
				result = L2CAP_CONF_UNACCEPT;
    1d94:	41 b8 01 00 00 00    	mov    $0x1,%r8d
    1d9a:	66 44 89 45 98       	mov    %r8w,-0x68(%rbp)
    1d9f:	90                   	nop
		switch (rfc.mode) {
    1da0:	0f b6 45 b7          	movzbl -0x49(%rbp),%eax
    1da4:	3c 03                	cmp    $0x3,%al
    1da6:	74 5a                	je     1e02 <l2cap_parse_conf_req+0x3f2>
    1da8:	3c 04                	cmp    $0x4,%al
    1daa:	0f 84 76 01 00 00    	je     1f26 <l2cap_parse_conf_req+0x516>
    1db0:	84 c0                	test   %al,%al
    1db2:	0f 84 33 01 00 00    	je     1eeb <l2cap_parse_conf_req+0x4db>
			result = L2CAP_CONF_UNACCEPT;
    1db8:	ba 01 00 00 00       	mov    $0x1,%edx
			memset(&rfc, 0, sizeof(rfc));
    1dbd:	48 c7 45 b7 00 00 00 	movq   $0x0,-0x49(%rbp)
    1dc4:	00 
    1dc5:	c6 45 bf 00          	movb   $0x0,-0x41(%rbp)
			result = L2CAP_CONF_UNACCEPT;
    1dc9:	66 89 55 98          	mov    %dx,-0x68(%rbp)
    1dcd:	e9 a1 fd ff ff       	jmpq   1b73 <l2cap_parse_conf_req+0x163>
    1dd2:	66 0f 1f 44 00 00    	nopw   0x0(%rax,%rax,1)
			result = L2CAP_CONF_UNACCEPT;
    1dd8:	41 b9 01 00 00 00    	mov    $0x1,%r9d
    1dde:	66 44 89 4d 98       	mov    %r9w,-0x68(%rbp)
    1de3:	e9 3c ff ff ff       	jmpq   1d24 <l2cap_parse_conf_req+0x314>
    1de8:	f0 41 80 8a 81 00 00 	lock orb $0x2,0x81(%r10)
    1def:	00 02 
		switch (rfc.mode) {
    1df1:	0f b6 45 b7          	movzbl -0x49(%rbp),%eax
				result = L2CAP_CONF_PENDING;
    1df5:	bf 04 00 00 00       	mov    $0x4,%edi
    1dfa:	66 89 7d 98          	mov    %di,-0x68(%rbp)
		switch (rfc.mode) {
    1dfe:	3c 03                	cmp    $0x3,%al
    1e00:	75 a6                	jne    1da8 <l2cap_parse_conf_req+0x398>
		(addr[nr / BITS_PER_LONG])) != 0;
    1e02:	49 8b 82 80 00 00 00 	mov    0x80(%r10),%rax
			if (!test_bit(CONF_EWS_RECV, &chan->conf_state))
    1e09:	f6 c4 01             	test   $0x1,%ah
    1e0c:	0f 85 5e 01 00 00    	jne    1f70 <l2cap_parse_conf_req+0x560>
				chan->remote_tx_win = rfc.txwin_size;
    1e12:	0f b6 45 b8          	movzbl -0x48(%rbp),%eax
    1e16:	66 41 89 82 c8 00 00 	mov    %ax,0xc8(%r10)
    1e1d:	00 
			chan->remote_max_tx = rfc.max_transmit;
    1e1e:	0f b6 45 b9          	movzbl -0x47(%rbp),%eax
			rfc.retrans_timeout =
    1e22:	b9 d0 07 00 00       	mov    $0x7d0,%ecx
			rfc.monitor_timeout =
    1e27:	be e0 2e 00 00       	mov    $0x2ee0,%esi
			rfc.retrans_timeout =
    1e2c:	66 89 4d ba          	mov    %cx,-0x46(%rbp)
			rfc.monitor_timeout =
    1e30:	66 89 75 bc          	mov    %si,-0x44(%rbp)
			chan->remote_max_tx = rfc.max_transmit;
    1e34:	41 88 82 ca 00 00 00 	mov    %al,0xca(%r10)
			size = min_t(u16, le16_to_cpu(rfc.max_pdu_size),
    1e3b:	49 8b 42 08          	mov    0x8(%r10),%rax
    1e3f:	8b 50 20             	mov    0x20(%rax),%edx
    1e42:	0f b7 45 be          	movzwl -0x42(%rbp),%eax
    1e46:	83 ea 0c             	sub    $0xc,%edx
    1e49:	66 39 c2             	cmp    %ax,%dx
    1e4c:	0f 46 c2             	cmovbe %edx,%eax
			rfc.max_pdu_size = cpu_to_le16(size);
    1e4f:	66 89 45 be          	mov    %ax,-0x42(%rbp)
			chan->remote_mps = size;
    1e53:	66 41 89 82 cc 00 00 	mov    %ax,0xcc(%r10)
    1e5a:	00 
		asm volatile(LOCK_PREFIX "orb %1,%0"
    1e5b:	f0 41 80 8a 80 00 00 	lock orb $0x10,0x80(%r10)
    1e62:	00 10 
			l2cap_add_conf_opt(&ptr, L2CAP_CONF_RFC,
    1e64:	48 8d 4d b7          	lea    -0x49(%rbp),%rcx
    1e68:	48 8d 7d a8          	lea    -0x58(%rbp),%rdi
    1e6c:	ba 09 00 00 00       	mov    $0x9,%edx
    1e71:	be 04 00 00 00       	mov    $0x4,%esi
    1e76:	4c 89 55 90          	mov    %r10,-0x70(%rbp)
    1e7a:	e8 31 e7 ff ff       	callq  5b0 <l2cap_add_conf_opt>
		(addr[nr / BITS_PER_LONG])) != 0;
    1e7f:	4c 8b 55 90          	mov    -0x70(%rbp),%r10
    1e83:	49 8b 82 90 00 00 00 	mov    0x90(%r10),%rax
			if (test_bit(FLAG_EFS_ENABLE, &chan->flags)) {
    1e8a:	a8 20                	test   $0x20,%al
    1e8c:	74 6b                	je     1ef9 <l2cap_parse_conf_req+0x4e9>
				chan->remote_id = efs.id;
    1e8e:	0f b6 45 c0          	movzbl -0x40(%rbp),%eax
				l2cap_add_conf_opt(&ptr, L2CAP_CONF_EFS,
    1e92:	48 8d 4d c0          	lea    -0x40(%rbp),%rcx
    1e96:	48 8d 7d a8          	lea    -0x58(%rbp),%rdi
    1e9a:	ba 10 00 00 00       	mov    $0x10,%edx
    1e9f:	be 06 00 00 00       	mov    $0x6,%esi
				chan->remote_id = efs.id;
    1ea4:	41 88 82 e0 00 00 00 	mov    %al,0xe0(%r10)
				chan->remote_stype = efs.stype;
    1eab:	0f b6 45 c1          	movzbl -0x3f(%rbp),%eax
    1eaf:	41 88 82 e1 00 00 00 	mov    %al,0xe1(%r10)
				chan->remote_msdu = le16_to_cpu(efs.msdu);
    1eb6:	0f b7 45 c2          	movzwl -0x3e(%rbp),%eax
    1eba:	66 41 89 82 e2 00 00 	mov    %ax,0xe2(%r10)
    1ec1:	00 
				chan->remote_flush_to =
    1ec2:	8b 45 cc             	mov    -0x34(%rbp),%eax
    1ec5:	41 89 82 ec 00 00 00 	mov    %eax,0xec(%r10)
				chan->remote_acc_lat =
    1ecc:	8b 45 c8             	mov    -0x38(%rbp),%eax
    1ecf:	41 89 82 e8 00 00 00 	mov    %eax,0xe8(%r10)
				chan->remote_sdu_itime =
    1ed6:	8b 45 c4             	mov    -0x3c(%rbp),%eax
    1ed9:	41 89 82 e4 00 00 00 	mov    %eax,0xe4(%r10)
				l2cap_add_conf_opt(&ptr, L2CAP_CONF_EFS,
    1ee0:	e8 cb e6 ff ff       	callq  5b0 <l2cap_add_conf_opt>
    1ee5:	4c 8b 55 90          	mov    -0x70(%rbp),%r10
    1ee9:	eb 0e                	jmp    1ef9 <l2cap_parse_conf_req+0x4e9>
			chan->fcs = L2CAP_FCS_NONE;
    1eeb:	41 c6 42 6f 00       	movb   $0x0,0x6f(%r10)
		asm volatile(LOCK_PREFIX "orb %1,%0"
    1ef0:	f0 41 80 8a 80 00 00 	lock orb $0x10,0x80(%r10)
    1ef7:	00 10 
		if (result == L2CAP_CONF_SUCCESS)
    1ef9:	66 83 7d 98 00       	cmpw   $0x0,-0x68(%rbp)
    1efe:	0f 85 6f fc ff ff    	jne    1b73 <l2cap_parse_conf_req+0x163>
    1f04:	f0 41 80 8a 80 00 00 	lock orb $0x4,0x80(%r10)
    1f0b:	00 04 
    1f0d:	e9 61 fc ff ff       	jmpq   1b73 <l2cap_parse_conf_req+0x163>
}
    1f12:	48 83 c4 68          	add    $0x68,%rsp
				return -ECONNREFUSED;
    1f16:	b8 91 ff ff ff       	mov    $0xffffff91,%eax
}
    1f1b:	5b                   	pop    %rbx
    1f1c:	41 5c                	pop    %r12
    1f1e:	41 5d                	pop    %r13
    1f20:	41 5e                	pop    %r14
    1f22:	41 5f                	pop    %r15
    1f24:	5d                   	pop    %rbp
    1f25:	c3                   	retq   
			size = min_t(u16, le16_to_cpu(rfc.max_pdu_size),
    1f26:	49 8b 42 08          	mov    0x8(%r10),%rax
    1f2a:	8b 50 20             	mov    0x20(%rax),%edx
    1f2d:	0f b7 45 be          	movzwl -0x42(%rbp),%eax
    1f31:	83 ea 0c             	sub    $0xc,%edx
    1f34:	66 39 c2             	cmp    %ax,%dx
    1f37:	0f 46 c2             	cmovbe %edx,%eax
			rfc.max_pdu_size = cpu_to_le16(size);
    1f3a:	66 89 45 be          	mov    %ax,-0x42(%rbp)
			chan->remote_mps = size;
    1f3e:	66 41 89 82 cc 00 00 	mov    %ax,0xcc(%r10)
    1f45:	00 
    1f46:	f0 41 80 8a 80 00 00 	lock orb $0x10,0x80(%r10)
    1f4d:	00 10 
			l2cap_add_conf_opt(&ptr, L2CAP_CONF_RFC,
    1f4f:	48 8d 4d b7          	lea    -0x49(%rbp),%rcx
    1f53:	48 8d 7d a8          	lea    -0x58(%rbp),%rdi
    1f57:	ba 09 00 00 00       	mov    $0x9,%edx
    1f5c:	be 04 00 00 00       	mov    $0x4,%esi
    1f61:	4c 89 55 90          	mov    %r10,-0x70(%rbp)
    1f65:	e8 46 e6 ff ff       	callq  5b0 <l2cap_add_conf_opt>
			break;
    1f6a:	4c 8b 55 90          	mov    -0x70(%rbp),%r10
    1f6e:	eb 89                	jmp    1ef9 <l2cap_parse_conf_req+0x4e9>
				rfc.txwin_size = L2CAP_DEFAULT_TX_WINDOW;
    1f70:	c6 45 b8 3f          	movb   $0x3f,-0x48(%rbp)
    1f74:	e9 a5 fe ff ff       	jmpq   1e1e <l2cap_parse_conf_req+0x40e>
			chan->mode = l2cap_select_mode(rfc.mode,
    1f79:	0f b6 4d b7          	movzbl -0x49(%rbp),%ecx
					chan->conn->feat_mask);
    1f7d:	49 8b 52 08          	mov    0x8(%r10),%rdx
    1f81:	8b 72 24             	mov    0x24(%rdx),%esi
		return L2CAP_MODE_BASIC;
    1f84:	31 d2                	xor    %edx,%edx
	switch (mode) {
    1f86:	8d 79 fd             	lea    -0x3(%rcx),%edi
    1f89:	40 80 ff 01          	cmp    $0x1,%dil
    1f8d:	77 23                	ja     1fb2 <l2cap_parse_conf_req+0x5a2>
	u32 local_feat_mask = l2cap_feat_mask;
    1f8f:	80 3d 00 00 00 00 01 	cmpb   $0x1,0x0(%rip)        # 1f96 <l2cap_parse_conf_req+0x586>
    1f96:	0f b7 f6             	movzwl %si,%esi
    1f99:	19 d2                	sbb    %edx,%edx
    1f9b:	83 e2 18             	and    $0x18,%edx
    1f9e:	83 ea 80             	sub    $0xffffff80,%edx
		return L2CAP_FEAT_STREAMING & feat_mask & local_feat_mask;
    1fa1:	21 d6                	and    %edx,%esi
	switch (mode) {
    1fa3:	80 f9 04             	cmp    $0x4,%cl
    1fa6:	75 5b                	jne    2003 <l2cap_parse_conf_req+0x5f3>
		return L2CAP_FEAT_STREAMING & feat_mask & local_feat_mask;
    1fa8:	83 e6 10             	and    $0x10,%esi
		return L2CAP_MODE_BASIC;
    1fab:	31 d2                	xor    %edx,%edx
    1fad:	85 f6                	test   %esi,%esi
    1faf:	0f 45 d1             	cmovne %ecx,%edx
			chan->mode = l2cap_select_mode(rfc.mode,
    1fb2:	41 88 52 24          	mov    %dl,0x24(%r10)
			break;
    1fb6:	e9 7b fb ff ff       	jmpq   1b36 <l2cap_parse_conf_req+0x126>
	BT_DBG("type 0x%2.2x len %d val 0x%lx", *type, opt->len, *val);
    1fbb:	4d 89 c8             	mov    %r9,%r8
	*type = opt->type;
    1fbe:	41 0f b6 d6          	movzbl %r14b,%edx
	BT_DBG("type 0x%2.2x len %d val 0x%lx", *type, opt->len, *val);
    1fc2:	44 89 e9             	mov    %r13d,%ecx
    1fc5:	48 c7 c6 00 00 00 00 	mov    $0x0,%rsi
    1fcc:	48 c7 c7 00 00 00 00 	mov    $0x0,%rdi
    1fd3:	31 c0                	xor    %eax,%eax
    1fd5:	4c 89 95 70 ff ff ff 	mov    %r10,-0x90(%rbp)
    1fdc:	44 89 9d 7c ff ff ff 	mov    %r11d,-0x84(%rbp)
    1fe3:	4c 89 4d 80          	mov    %r9,-0x80(%rbp)
    1fe7:	e8 00 00 00 00       	callq  1fec <l2cap_parse_conf_req+0x5dc>
    1fec:	4c 8b 95 70 ff ff ff 	mov    -0x90(%rbp),%r10
    1ff3:	44 8b 9d 7c ff ff ff 	mov    -0x84(%rbp),%r11d
    1ffa:	4c 8b 4d 80          	mov    -0x80(%rbp),%r9
    1ffe:	e9 bb fa ff ff       	jmpq   1abe <l2cap_parse_conf_req+0xae>
		return L2CAP_FEAT_ERTM & feat_mask & local_feat_mask;
    2003:	83 e6 08             	and    $0x8,%esi
    2006:	eb a3                	jmp    1fab <l2cap_parse_conf_req+0x59b>
	BT_DBG("chan %p", chan);
    2008:	48 89 fa             	mov    %rdi,%rdx
    200b:	48 89 7d 98          	mov    %rdi,-0x68(%rbp)
    200f:	48 c7 c6 00 00 00 00 	mov    $0x0,%rsi
    2016:	48 c7 c7 00 00 00 00 	mov    $0x0,%rdi
    201d:	31 c0                	xor    %eax,%eax
    201f:	4c 89 4d 90          	mov    %r9,-0x70(%rbp)
    2023:	e8 00 00 00 00       	callq  2028 <l2cap_parse_conf_req+0x618>
    2028:	4c 8b 4d 90          	mov    -0x70(%rbp),%r9
    202c:	4c 8b 55 98          	mov    -0x68(%rbp),%r10
    2030:	e9 24 fa ff ff       	jmpq   1a59 <l2cap_parse_conf_req+0x49>
    2035:	90                   	nop
    2036:	66 2e 0f 1f 84 00 00 	nopw   %cs:0x0(%rax,%rax,1)
    203d:	00 00 00 

0000000000002040 <l2cap_parse_conf_rsp>:
{
    2040:	55                   	push   %rbp
    2041:	48 89 e5             	mov    %rsp,%rbp
    2044:	41 57                	push   %r15
    2046:	41 56                	push   %r14
    2048:	41 55                	push   %r13
    204a:	41 54                	push   %r12
    204c:	53                   	push   %rbx
    204d:	48 83 ec 58          	sub    $0x58,%rsp
    2051:	e8 00 00 00 00       	callq  2056 <l2cap_parse_conf_rsp+0x16>
    2056:	48 89 c8             	mov    %rcx,%rax
    2059:	49 89 fe             	mov    %rdi,%r14
    205c:	48 89 f3             	mov    %rsi,%rbx
	void *ptr = req->data;
    205f:	48 83 c0 04          	add    $0x4,%rax
	BT_DBG("chan %p, rsp %p, len %d, req %p", chan, rsp, len, data);
    2063:	f6 05 00 00 00 00 04 	testb  $0x4,0x0(%rip)        # 206a <l2cap_parse_conf_rsp+0x2a>
{
    206a:	41 89 d4             	mov    %edx,%r12d
    206d:	48 89 4d 90          	mov    %rcx,-0x70(%rbp)
    2071:	4c 89 45 98          	mov    %r8,-0x68(%rbp)
	void *ptr = req->data;
    2075:	48 89 45 a8          	mov    %rax,-0x58(%rbp)
	struct l2cap_conf_rfc rfc = { .mode = L2CAP_MODE_BASIC };
    2079:	48 c7 45 b7 00 00 00 	movq   $0x0,-0x49(%rbp)
    2080:	00 
    2081:	c6 45 bf 00          	movb   $0x0,-0x41(%rbp)
	BT_DBG("chan %p, rsp %p, len %d, req %p", chan, rsp, len, data);
    2085:	0f 85 4a 03 00 00    	jne    23d5 <l2cap_parse_conf_rsp+0x395>
	while (len >= L2CAP_CONF_OPT_SIZE) {
    208b:	41 83 fc 01          	cmp    $0x1,%r12d
			chan->tx_win = min_t(u16, val,
    208f:	41 bf ff 3f 00 00    	mov    $0x3fff,%r15d
	while (len >= L2CAP_CONF_OPT_SIZE) {
    2095:	0f 8e 9f 00 00 00    	jle    213a <l2cap_parse_conf_rsp+0xfa>
    209b:	0f 1f 44 00 00       	nopl   0x0(%rax,%rax,1)
	len = L2CAP_CONF_OPT_SIZE + opt->len;
    20a0:	0f b6 43 01          	movzbl 0x1(%rbx),%eax
			l2cap_add_conf_opt(&ptr, L2CAP_CONF_RFC,
    20a4:	49 89 db             	mov    %rbx,%r11
	*type = opt->type;
    20a7:	45 0f b6 0b          	movzbl (%r11),%r9d
	len = L2CAP_CONF_OPT_SIZE + opt->len;
    20ab:	44 0f b6 d0          	movzbl %al,%r10d
    20af:	45 8d 6a 02          	lea    0x2(%r10),%r13d
	*ptr += len;
    20b3:	49 63 dd             	movslq %r13d,%rbx
    20b6:	4c 01 db             	add    %r11,%rbx
	switch (opt->len) {
    20b9:	3c 02                	cmp    $0x2,%al
    20bb:	0f 84 ff 01 00 00    	je     22c0 <l2cap_parse_conf_rsp+0x280>
    20c1:	0f 86 e1 01 00 00    	jbe    22a8 <l2cap_parse_conf_rsp+0x268>
    20c7:	3c 04                	cmp    $0x4,%al
    20c9:	0f 84 01 02 00 00    	je     22d0 <l2cap_parse_conf_rsp+0x290>
    20cf:	3c 05                	cmp    $0x5,%al
    20d1:	0f 85 09 02 00 00    	jne    22e0 <l2cap_parse_conf_rsp+0x2a0>
    20d7:	4d 8b 5b 02          	mov    0x2(%r11),%r11
	BT_DBG("type 0x%2.2x len %d val 0x%lx", *type, opt->len, *val);
    20db:	f6 05 00 00 00 00 04 	testb  $0x4,0x0(%rip)        # 20e2 <l2cap_parse_conf_rsp+0xa2>
    20e2:	0f 85 b1 02 00 00    	jne    2399 <l2cap_parse_conf_rsp+0x359>
		len -= l2cap_get_conf_opt(&rsp, &type, &olen, &val);
    20e8:	45 29 ec             	sub    %r13d,%r12d
		switch (type) {
    20eb:	41 80 f9 07          	cmp    $0x7,%r9b
    20ef:	77 3f                	ja     2130 <l2cap_parse_conf_rsp+0xf0>
    20f1:	45 0f b6 c9          	movzbl %r9b,%r9d
    20f5:	42 ff 24 cd 00 00 00 	jmpq   *0x0(,%r9,8)
    20fc:	00 
    20fd:	0f 1f 00             	nopl   (%rax)
			chan->tx_win = min_t(u16, val,
    2100:	66 41 81 fb ff 3f    	cmp    $0x3fff,%r11w
			l2cap_add_conf_opt(&ptr, L2CAP_CONF_EWS, 2,
    2106:	48 8d 7d a8          	lea    -0x58(%rbp),%rdi
    210a:	ba 02 00 00 00       	mov    $0x2,%edx
			chan->tx_win = min_t(u16, val,
    210f:	45 0f 47 df          	cmova  %r15d,%r11d
			l2cap_add_conf_opt(&ptr, L2CAP_CONF_EWS, 2,
    2113:	be 07 00 00 00       	mov    $0x7,%esi
			chan->tx_win = min_t(u16, val,
    2118:	66 45 89 5e 70       	mov    %r11w,0x70(%r14)
			l2cap_add_conf_opt(&ptr, L2CAP_CONF_EWS, 2,
    211d:	41 0f b7 cb          	movzwl %r11w,%ecx
    2121:	e8 8a e4 ff ff       	callq  5b0 <l2cap_add_conf_opt>
    2126:	66 2e 0f 1f 84 00 00 	nopw   %cs:0x0(%rax,%rax,1)
    212d:	00 00 00 
	while (len >= L2CAP_CONF_OPT_SIZE) {
    2130:	41 83 fc 01          	cmp    $0x1,%r12d
    2134:	0f 8f 66 ff ff ff    	jg     20a0 <l2cap_parse_conf_rsp+0x60>
	if (chan->mode == L2CAP_MODE_BASIC && chan->mode != rfc.mode)
    213a:	41 80 7e 24 00       	cmpb   $0x0,0x24(%r14)
    213f:	0f 85 2b 01 00 00    	jne    2270 <l2cap_parse_conf_rsp+0x230>
    2145:	80 7d b7 00          	cmpb   $0x0,-0x49(%rbp)
    2149:	0f 85 dd 01 00 00    	jne    232c <l2cap_parse_conf_rsp+0x2ec>
	req->dcid   = cpu_to_le16(chan->dcid);
    214f:	41 0f b7 46 1a       	movzwl 0x1a(%r14),%eax
    2154:	48 8b 75 90          	mov    -0x70(%rbp),%rsi
    2158:	66 89 06             	mov    %ax,(%rsi)
	req->flags  = cpu_to_le16(0x0000);
    215b:	31 c0                	xor    %eax,%eax
    215d:	66 89 46 02          	mov    %ax,0x2(%rsi)
	return ptr - data;
    2161:	8b 45 a8             	mov    -0x58(%rbp),%eax
}
    2164:	48 83 c4 58          	add    $0x58,%rsp
    2168:	5b                   	pop    %rbx
    2169:	41 5c                	pop    %r12
    216b:	41 5d                	pop    %r13
    216d:	41 5e                	pop    %r14
    216f:	41 5f                	pop    %r15
	return ptr - data;
    2171:	29 f0                	sub    %esi,%eax
}
    2173:	5d                   	pop    %rbp
    2174:	c3                   	retq   
    2175:	0f 1f 00             	nopl   (%rax)
			if (olen == sizeof(efs))
    2178:	41 83 fa 10          	cmp    $0x10,%r10d
    217c:	0f 84 7e 01 00 00    	je     2300 <l2cap_parse_conf_rsp+0x2c0>
			if (chan->local_stype != L2CAP_SERV_NOTRAFIC &&
    2182:	41 0f b6 86 cf 00 00 	movzbl 0xcf(%r14),%eax
    2189:	00 
    218a:	84 c0                	test   %al,%al
    218c:	74 10                	je     219e <l2cap_parse_conf_rsp+0x15e>
					efs.stype != L2CAP_SERV_NOTRAFIC &&
    218e:	0f b6 55 c1          	movzbl -0x3f(%rbp),%edx
			if (chan->local_stype != L2CAP_SERV_NOTRAFIC &&
    2192:	84 d2                	test   %dl,%dl
    2194:	74 08                	je     219e <l2cap_parse_conf_rsp+0x15e>
					efs.stype != L2CAP_SERV_NOTRAFIC &&
    2196:	38 d0                	cmp    %dl,%al
    2198:	0f 85 8e 01 00 00    	jne    232c <l2cap_parse_conf_rsp+0x2ec>
			l2cap_add_conf_opt(&ptr, L2CAP_CONF_EFS,
    219e:	48 8d 4d c0          	lea    -0x40(%rbp),%rcx
    21a2:	48 8d 7d a8          	lea    -0x58(%rbp),%rdi
    21a6:	ba 10 00 00 00       	mov    $0x10,%edx
    21ab:	be 06 00 00 00       	mov    $0x6,%esi
    21b0:	e8 fb e3 ff ff       	callq  5b0 <l2cap_add_conf_opt>
			break;
    21b5:	e9 76 ff ff ff       	jmpq   2130 <l2cap_parse_conf_rsp+0xf0>
    21ba:	66 0f 1f 44 00 00    	nopw   0x0(%rax,%rax,1)
			if (olen == sizeof(rfc))
    21c0:	41 83 fa 09          	cmp    $0x9,%r10d
    21c4:	0f 84 4e 01 00 00    	je     2318 <l2cap_parse_conf_rsp+0x2d8>
		(addr[nr / BITS_PER_LONG])) != 0;
    21ca:	49 8b 86 80 00 00 00 	mov    0x80(%r14),%rax
			if (test_bit(CONF_STATE2_DEVICE, &chan->conf_state) &&
    21d1:	a8 80                	test   $0x80,%al
    21d3:	74 0e                	je     21e3 <l2cap_parse_conf_rsp+0x1a3>
    21d5:	41 0f b6 46 24       	movzbl 0x24(%r14),%eax
    21da:	38 45 b7             	cmp    %al,-0x49(%rbp)
    21dd:	0f 85 49 01 00 00    	jne    232c <l2cap_parse_conf_rsp+0x2ec>
			l2cap_add_conf_opt(&ptr, L2CAP_CONF_RFC,
    21e3:	48 8d 4d b7          	lea    -0x49(%rbp),%rcx
    21e7:	48 8d 7d a8          	lea    -0x58(%rbp),%rdi
			chan->fcs = 0;
    21eb:	41 c6 46 6f 00       	movb   $0x0,0x6f(%r14)
			l2cap_add_conf_opt(&ptr, L2CAP_CONF_RFC,
    21f0:	ba 09 00 00 00       	mov    $0x9,%edx
    21f5:	be 04 00 00 00       	mov    $0x4,%esi
    21fa:	e8 b1 e3 ff ff       	callq  5b0 <l2cap_add_conf_opt>
			break;
    21ff:	e9 2c ff ff ff       	jmpq   2130 <l2cap_parse_conf_rsp+0xf0>
    2204:	0f 1f 40 00          	nopl   0x0(%rax)
			l2cap_add_conf_opt(&ptr, L2CAP_CONF_FLUSH_TO,
    2208:	48 8d 7d a8          	lea    -0x58(%rbp),%rdi
			chan->flush_to = val;
    220c:	66 45 89 5e 22       	mov    %r11w,0x22(%r14)
			l2cap_add_conf_opt(&ptr, L2CAP_CONF_FLUSH_TO,
    2211:	41 0f b7 cb          	movzwl %r11w,%ecx
    2215:	ba 02 00 00 00       	mov    $0x2,%edx
    221a:	be 02 00 00 00       	mov    $0x2,%esi
    221f:	e8 8c e3 ff ff       	callq  5b0 <l2cap_add_conf_opt>
			break;
    2224:	e9 07 ff ff ff       	jmpq   2130 <l2cap_parse_conf_rsp+0xf0>
    2229:	0f 1f 80 00 00 00 00 	nopl   0x0(%rax)
			if (val < L2CAP_DEFAULT_MIN_MTU) {
    2230:	49 83 fb 2f          	cmp    $0x2f,%r11
    2234:	0f 87 b6 00 00 00    	ja     22f0 <l2cap_parse_conf_rsp+0x2b0>
				*result = L2CAP_CONF_UNACCEPT;
    223a:	48 8b 45 98          	mov    -0x68(%rbp),%rax
				chan->imtu = L2CAP_DEFAULT_MIN_MTU;
    223e:	b9 30 00 00 00       	mov    $0x30,%ecx
				*result = L2CAP_CONF_UNACCEPT;
    2243:	ba 01 00 00 00       	mov    $0x1,%edx
    2248:	66 89 10             	mov    %dx,(%rax)
				chan->imtu = L2CAP_DEFAULT_MIN_MTU;
    224b:	66 41 89 4e 1e       	mov    %cx,0x1e(%r14)
    2250:	b9 30 00 00 00       	mov    $0x30,%ecx
			l2cap_add_conf_opt(&ptr, L2CAP_CONF_MTU, 2, chan->imtu);
    2255:	48 8d 7d a8          	lea    -0x58(%rbp),%rdi
    2259:	ba 02 00 00 00       	mov    $0x2,%edx
    225e:	be 01 00 00 00       	mov    $0x1,%esi
    2263:	e8 48 e3 ff ff       	callq  5b0 <l2cap_add_conf_opt>
			break;
    2268:	e9 c3 fe ff ff       	jmpq   2130 <l2cap_parse_conf_rsp+0xf0>
    226d:	0f 1f 00             	nopl   (%rax)
	chan->mode = rfc.mode;
    2270:	0f b6 45 b7          	movzbl -0x49(%rbp),%eax
	if (*result == L2CAP_CONF_SUCCESS || *result == L2CAP_CONF_PENDING) {
    2274:	48 8b 75 98          	mov    -0x68(%rbp),%rsi
	chan->mode = rfc.mode;
    2278:	41 88 46 24          	mov    %al,0x24(%r14)
	if (*result == L2CAP_CONF_SUCCESS || *result == L2CAP_CONF_PENDING) {
    227c:	66 f7 06 fb ff       	testw  $0xfffb,(%rsi)
    2281:	0f 85 c8 fe ff ff    	jne    214f <l2cap_parse_conf_rsp+0x10f>
		switch (rfc.mode) {
    2287:	3c 03                	cmp    $0x3,%al
    2289:	0f 84 b1 00 00 00    	je     2340 <l2cap_parse_conf_rsp+0x300>
    228f:	3c 04                	cmp    $0x4,%al
    2291:	0f 85 b8 fe ff ff    	jne    214f <l2cap_parse_conf_rsp+0x10f>
			chan->mps    = le16_to_cpu(rfc.max_pdu_size);
    2297:	0f b7 45 be          	movzwl -0x42(%rbp),%eax
    229b:	66 41 89 46 7a       	mov    %ax,0x7a(%r14)
    22a0:	e9 aa fe ff ff       	jmpq   214f <l2cap_parse_conf_rsp+0x10f>
    22a5:	0f 1f 00             	nopl   (%rax)
	switch (opt->len) {
    22a8:	3c 01                	cmp    $0x1,%al
    22aa:	75 34                	jne    22e0 <l2cap_parse_conf_rsp+0x2a0>
		*val = *((u8 *) opt->val);
    22ac:	45 0f b6 5b 02       	movzbl 0x2(%r11),%r11d
    22b1:	e9 25 fe ff ff       	jmpq   20db <l2cap_parse_conf_rsp+0x9b>
    22b6:	66 2e 0f 1f 84 00 00 	nopw   %cs:0x0(%rax,%rax,1)
    22bd:	00 00 00 
		*val = get_unaligned_le16(opt->val);
    22c0:	45 0f b7 5b 02       	movzwl 0x2(%r11),%r11d
    22c5:	e9 11 fe ff ff       	jmpq   20db <l2cap_parse_conf_rsp+0x9b>
    22ca:	66 0f 1f 44 00 00    	nopw   0x0(%rax,%rax,1)
		*val = get_unaligned_le32(opt->val);
    22d0:	45 8b 5b 02          	mov    0x2(%r11),%r11d
    22d4:	e9 02 fe ff ff       	jmpq   20db <l2cap_parse_conf_rsp+0x9b>
    22d9:	0f 1f 80 00 00 00 00 	nopl   0x0(%rax)
		*val = (unsigned long) opt->val;
    22e0:	49 83 c3 02          	add    $0x2,%r11
    22e4:	e9 f2 fd ff ff       	jmpq   20db <l2cap_parse_conf_rsp+0x9b>
    22e9:	0f 1f 80 00 00 00 00 	nopl   0x0(%rax)
				chan->imtu = val;
    22f0:	66 45 89 5e 1e       	mov    %r11w,0x1e(%r14)
    22f5:	41 0f b7 cb          	movzwl %r11w,%ecx
    22f9:	e9 57 ff ff ff       	jmpq   2255 <l2cap_parse_conf_rsp+0x215>
    22fe:	66 90                	xchg   %ax,%ax
				memcpy(&efs, (void *)val, olen);
    2300:	49 8b 03             	mov    (%r11),%rax
    2303:	49 8b 53 08          	mov    0x8(%r11),%rdx
    2307:	48 89 45 c0          	mov    %rax,-0x40(%rbp)
    230b:	48 89 55 c8          	mov    %rdx,-0x38(%rbp)
    230f:	e9 6e fe ff ff       	jmpq   2182 <l2cap_parse_conf_rsp+0x142>
    2314:	0f 1f 40 00          	nopl   0x0(%rax)
				memcpy(&rfc, (void *)val, olen);
    2318:	49 8b 03             	mov    (%r11),%rax
    231b:	48 89 45 b7          	mov    %rax,-0x49(%rbp)
    231f:	41 0f b6 43 08       	movzbl 0x8(%r11),%eax
    2324:	88 45 bf             	mov    %al,-0x41(%rbp)
    2327:	e9 9e fe ff ff       	jmpq   21ca <l2cap_parse_conf_rsp+0x18a>
}
    232c:	48 83 c4 58          	add    $0x58,%rsp
				return -ECONNREFUSED;
    2330:	b8 91 ff ff ff       	mov    $0xffffff91,%eax
}
    2335:	5b                   	pop    %rbx
    2336:	41 5c                	pop    %r12
    2338:	41 5d                	pop    %r13
    233a:	41 5e                	pop    %r14
    233c:	41 5f                	pop    %r15
    233e:	5d                   	pop    %rbp
    233f:	c3                   	retq   
			chan->retrans_timeout = le16_to_cpu(rfc.retrans_timeout);
    2340:	0f b7 45 ba          	movzwl -0x46(%rbp),%eax
    2344:	66 41 89 46 76       	mov    %ax,0x76(%r14)
			chan->monitor_timeout = le16_to_cpu(rfc.monitor_timeout);
    2349:	0f b7 45 bc          	movzwl -0x44(%rbp),%eax
    234d:	66 41 89 46 78       	mov    %ax,0x78(%r14)
			chan->mps    = le16_to_cpu(rfc.max_pdu_size);
    2352:	0f b7 45 be          	movzwl -0x42(%rbp),%eax
    2356:	66 41 89 46 7a       	mov    %ax,0x7a(%r14)
    235b:	49 8b 86 90 00 00 00 	mov    0x90(%r14),%rax
			if (test_bit(FLAG_EFS_ENABLE, &chan->flags)) {
    2362:	a8 20                	test   $0x20,%al
    2364:	0f 84 e5 fd ff ff    	je     214f <l2cap_parse_conf_rsp+0x10f>
				chan->local_msdu = le16_to_cpu(efs.msdu);
    236a:	0f b7 45 c2          	movzwl -0x3e(%rbp),%eax
    236e:	66 41 89 86 d0 00 00 	mov    %ax,0xd0(%r14)
    2375:	00 
				chan->local_sdu_itime =
    2376:	8b 45 c4             	mov    -0x3c(%rbp),%eax
    2379:	41 89 86 d4 00 00 00 	mov    %eax,0xd4(%r14)
				chan->local_acc_lat = le32_to_cpu(efs.acc_lat);
    2380:	8b 45 c8             	mov    -0x38(%rbp),%eax
    2383:	41 89 86 d8 00 00 00 	mov    %eax,0xd8(%r14)
				chan->local_flush_to =
    238a:	8b 45 cc             	mov    -0x34(%rbp),%eax
    238d:	41 89 86 dc 00 00 00 	mov    %eax,0xdc(%r14)
    2394:	e9 b6 fd ff ff       	jmpq   214f <l2cap_parse_conf_rsp+0x10f>
	*type = opt->type;
    2399:	41 0f b6 d1          	movzbl %r9b,%edx
	BT_DBG("type 0x%2.2x len %d val 0x%lx", *type, opt->len, *val);
    239d:	4d 89 d8             	mov    %r11,%r8
    23a0:	44 89 d1             	mov    %r10d,%ecx
    23a3:	48 c7 c6 00 00 00 00 	mov    $0x0,%rsi
    23aa:	48 c7 c7 00 00 00 00 	mov    $0x0,%rdi
    23b1:	31 c0                	xor    %eax,%eax
	*type = opt->type;
    23b3:	44 89 4d 88          	mov    %r9d,-0x78(%rbp)
	BT_DBG("type 0x%2.2x len %d val 0x%lx", *type, opt->len, *val);
    23b7:	4c 89 5d 80          	mov    %r11,-0x80(%rbp)
    23bb:	44 89 55 8c          	mov    %r10d,-0x74(%rbp)
    23bf:	e8 00 00 00 00       	callq  23c4 <l2cap_parse_conf_rsp+0x384>
    23c4:	44 8b 4d 88          	mov    -0x78(%rbp),%r9d
    23c8:	4c 8b 5d 80          	mov    -0x80(%rbp),%r11
    23cc:	44 8b 55 8c          	mov    -0x74(%rbp),%r10d
    23d0:	e9 13 fd ff ff       	jmpq   20e8 <l2cap_parse_conf_rsp+0xa8>
	BT_DBG("chan %p, rsp %p, len %d, req %p", chan, rsp, len, data);
    23d5:	49 89 c9             	mov    %rcx,%r9
    23d8:	41 89 d0             	mov    %edx,%r8d
    23db:	48 89 f1             	mov    %rsi,%rcx
    23de:	48 89 fa             	mov    %rdi,%rdx
    23e1:	48 c7 c6 00 00 00 00 	mov    $0x0,%rsi
    23e8:	48 c7 c7 00 00 00 00 	mov    $0x0,%rdi
    23ef:	31 c0                	xor    %eax,%eax
    23f1:	e8 00 00 00 00       	callq  23f6 <l2cap_parse_conf_rsp+0x3b6>
    23f6:	e9 90 fc ff ff       	jmpq   208b <l2cap_parse_conf_rsp+0x4b>
    23fb:	0f 1f 44 00 00       	nopl   0x0(%rax,%rax,1)

0000000000002400 <l2cap_clear_timer>:
{
    2400:	55                   	push   %rbp
    2401:	48 89 e5             	mov    %rsp,%rbp
    2404:	41 54                	push   %r12
    2406:	49 89 fc             	mov    %rdi,%r12
 */
static inline bool cancel_delayed_work(struct delayed_work *work)
{
	bool ret;

	ret = del_timer_sync(&work->timer);
    2409:	48 8d 7e 20          	lea    0x20(%rsi),%rdi
    240d:	53                   	push   %rbx
    240e:	48 89 f3             	mov    %rsi,%rbx
    2411:	48 83 ec 10          	sub    $0x10,%rsp
    2415:	e8 00 00 00 00       	callq  241a <l2cap_clear_timer+0x1a>
    241a:	85 c0                	test   %eax,%eax
	if (ret)
    241c:	0f 95 c0             	setne  %al
    241f:	74 11                	je     2432 <l2cap_clear_timer+0x32>
		asm volatile(LOCK_PREFIX "andb %1,%0"
    2421:	f0 80 23 fe          	lock andb $0xfe,(%rbx)
 */
static inline int atomic_dec_and_test(atomic_t *v)
{
	unsigned char c;

	asm volatile(LOCK_PREFIX "decl %0; sete %1"
    2425:	f0 41 ff 4c 24 14    	lock decl 0x14(%r12)
    242b:	0f 94 c2             	sete   %dl
	if (atomic_dec_and_test(&c->refcnt))
    242e:	84 d2                	test   %dl,%dl
    2430:	75 0e                	jne    2440 <l2cap_clear_timer+0x40>
}
    2432:	48 83 c4 10          	add    $0x10,%rsp
    2436:	5b                   	pop    %rbx
    2437:	41 5c                	pop    %r12
    2439:	5d                   	pop    %rbp
    243a:	c3                   	retq   
    243b:	0f 1f 44 00 00       	nopl   0x0(%rax,%rax,1)
		kfree(c);
    2440:	4c 89 e7             	mov    %r12,%rdi
    2443:	89 45 ec             	mov    %eax,-0x14(%rbp)
    2446:	e8 00 00 00 00       	callq  244b <l2cap_clear_timer+0x4b>
    244b:	8b 45 ec             	mov    -0x14(%rbp),%eax
}
    244e:	48 83 c4 10          	add    $0x10,%rsp
    2452:	5b                   	pop    %rbx
    2453:	41 5c                	pop    %r12
    2455:	5d                   	pop    %rbp
    2456:	c3                   	retq   
    2457:	66 0f 1f 84 00 00 00 	nopw   0x0(%rax,%rax,1)
    245e:	00 00 

0000000000002460 <l2cap_chan_ready>:
{
    2460:	55                   	push   %rbp
    2461:	48 89 e5             	mov    %rsp,%rbp
    2464:	41 55                	push   %r13
    2466:	41 54                	push   %r12
    2468:	53                   	push   %rbx
    2469:	48 83 ec 08          	sub    $0x8,%rsp
    246d:	e8 00 00 00 00       	callq  2472 <l2cap_chan_ready+0x12>
	struct sock *sk = chan->sk;
    2472:	4c 8b 27             	mov    (%rdi),%r12
    2475:	31 f6                	xor    %esi,%esi
{
    2477:	48 89 fb             	mov    %rdi,%rbx
    247a:	4c 89 e7             	mov    %r12,%rdi
    247d:	e8 00 00 00 00       	callq  2482 <l2cap_chan_ready+0x22>
	BT_DBG("sk %p, parent %p", sk, parent);
    2482:	f6 05 00 00 00 00 04 	testb  $0x4,0x0(%rip)        # 2489 <l2cap_chan_ready+0x29>
	parent = bt_sk(sk)->parent;
    2489:	4d 8b ac 24 a8 02 00 	mov    0x2a8(%r12),%r13
    2490:	00 
	BT_DBG("sk %p, parent %p", sk, parent);
    2491:	75 77                	jne    250a <l2cap_chan_ready+0xaa>
	ret = del_timer_sync(&work->timer);
    2493:	48 8d bb 10 01 00 00 	lea    0x110(%rbx),%rdi
	chan->conf_state = 0;
    249a:	48 c7 83 80 00 00 00 	movq   $0x0,0x80(%rbx)
    24a1:	00 00 00 00 
    24a5:	e8 00 00 00 00       	callq  24aa <l2cap_chan_ready+0x4a>
	if (ret)
    24aa:	85 c0                	test   %eax,%eax
    24ac:	74 13                	je     24c1 <l2cap_chan_ready+0x61>
    24ae:	f0 80 a3 f0 00 00 00 	lock andb $0xfe,0xf0(%rbx)
    24b5:	fe 
    24b6:	f0 ff 4b 14          	lock decl 0x14(%rbx)
    24ba:	0f 94 c0             	sete   %al
	if (atomic_dec_and_test(&c->refcnt))
    24bd:	84 c0                	test   %al,%al
    24bf:	75 3f                	jne    2500 <l2cap_chan_ready+0xa0>
	__l2cap_state_change(chan, BT_CONNECTED);
    24c1:	be 01 00 00 00       	mov    $0x1,%esi
    24c6:	48 89 df             	mov    %rbx,%rdi
    24c9:	e8 c2 db ff ff       	callq  90 <__l2cap_state_change>
	sk->sk_state_change(sk);
    24ce:	4c 89 e7             	mov    %r12,%rdi
    24d1:	41 ff 94 24 58 02 00 	callq  *0x258(%r12)
    24d8:	00 
	if (parent)
    24d9:	4d 85 ed             	test   %r13,%r13
    24dc:	74 0c                	je     24ea <l2cap_chan_ready+0x8a>
		parent->sk_data_ready(parent, 0);
    24de:	31 f6                	xor    %esi,%esi
    24e0:	4c 89 ef             	mov    %r13,%rdi
    24e3:	41 ff 95 60 02 00 00 	callq  *0x260(%r13)
	release_sock(sk);
    24ea:	4c 89 e7             	mov    %r12,%rdi
    24ed:	e8 00 00 00 00       	callq  24f2 <l2cap_chan_ready+0x92>
}
    24f2:	48 83 c4 08          	add    $0x8,%rsp
    24f6:	5b                   	pop    %rbx
    24f7:	41 5c                	pop    %r12
    24f9:	41 5d                	pop    %r13
    24fb:	5d                   	pop    %rbp
    24fc:	c3                   	retq   
    24fd:	0f 1f 00             	nopl   (%rax)
		kfree(c);
    2500:	48 89 df             	mov    %rbx,%rdi
    2503:	e8 00 00 00 00       	callq  2508 <l2cap_chan_ready+0xa8>
    2508:	eb b7                	jmp    24c1 <l2cap_chan_ready+0x61>
	BT_DBG("sk %p, parent %p", sk, parent);
    250a:	4c 89 e9             	mov    %r13,%rcx
    250d:	4c 89 e2             	mov    %r12,%rdx
    2510:	48 c7 c6 00 00 00 00 	mov    $0x0,%rsi
    2517:	48 c7 c7 00 00 00 00 	mov    $0x0,%rdi
    251e:	31 c0                	xor    %eax,%eax
    2520:	e8 00 00 00 00       	callq  2525 <l2cap_chan_ready+0xc5>
    2525:	e9 69 ff ff ff       	jmpq   2493 <l2cap_chan_ready+0x33>
    252a:	66 0f 1f 44 00 00    	nopw   0x0(%rax,%rax,1)

0000000000002530 <l2cap_drop_acked_frames>:
{
    2530:	55                   	push   %rbp
    2531:	48 89 e5             	mov    %rsp,%rbp
    2534:	41 54                	push   %r12
    2536:	53                   	push   %rbx
    2537:	e8 00 00 00 00       	callq  253c <l2cap_drop_acked_frames+0xc>
	struct sk_buff *skb = list_->next;
    253c:	48 8b 87 b8 02 00 00 	mov    0x2b8(%rdi),%rax
	while ((skb = skb_peek(&chan->tx_q)) &&
    2543:	4c 8d a7 b8 02 00 00 	lea    0x2b8(%rdi),%r12
{
    254a:	48 89 fb             	mov    %rdi,%rbx
	if (skb == (struct sk_buff *)list_)
    254d:	49 39 c4             	cmp    %rax,%r12
    2550:	74 6e                	je     25c0 <l2cap_drop_acked_frames+0x90>
	while ((skb = skb_peek(&chan->tx_q)) &&
    2552:	48 85 c0             	test   %rax,%rax
    2555:	74 69                	je     25c0 <l2cap_drop_acked_frames+0x90>
    2557:	66 83 bf a8 00 00 00 	cmpw   $0x0,0xa8(%rdi)
    255e:	00 
    255f:	74 6b                	je     25cc <l2cap_drop_acked_frames+0x9c>
		if (bt_cb(skb)->control.txseq == chan->expected_ack_seq)
    2561:	0f b7 b7 9a 00 00 00 	movzwl 0x9a(%rdi),%esi
    2568:	66 39 70 34          	cmp    %si,0x34(%rax)
    256c:	74 44                	je     25b2 <l2cap_drop_acked_frames+0x82>
		skb = skb_dequeue(&chan->tx_q);
    256e:	4c 89 e7             	mov    %r12,%rdi
    2571:	e8 00 00 00 00       	callq  2576 <l2cap_drop_acked_frames+0x46>
		kfree_skb(skb);
    2576:	48 89 c7             	mov    %rax,%rdi
    2579:	e8 00 00 00 00       	callq  257e <l2cap_drop_acked_frames+0x4e>
		chan->unacked_frames--;
    257e:	0f b7 83 a8 00 00 00 	movzwl 0xa8(%rbx),%eax
    2585:	8d 50 ff             	lea    -0x1(%rax),%edx
	struct sk_buff *skb = list_->next;
    2588:	48 8b 83 b8 02 00 00 	mov    0x2b8(%rbx),%rax
    258f:	66 89 93 a8 00 00 00 	mov    %dx,0xa8(%rbx)
	if (skb == (struct sk_buff *)list_)
    2596:	4c 39 e0             	cmp    %r12,%rax
    2599:	74 2c                	je     25c7 <l2cap_drop_acked_frames+0x97>
	while ((skb = skb_peek(&chan->tx_q)) &&
    259b:	48 85 c0             	test   %rax,%rax
    259e:	74 27                	je     25c7 <l2cap_drop_acked_frames+0x97>
    25a0:	66 85 d2             	test   %dx,%dx
    25a3:	74 27                	je     25cc <l2cap_drop_acked_frames+0x9c>
		if (bt_cb(skb)->control.txseq == chan->expected_ack_seq)
    25a5:	0f b7 8b 9a 00 00 00 	movzwl 0x9a(%rbx),%ecx
    25ac:	66 39 48 34          	cmp    %cx,0x34(%rax)
    25b0:	75 bc                	jne    256e <l2cap_drop_acked_frames+0x3e>
}
    25b2:	5b                   	pop    %rbx
    25b3:	41 5c                	pop    %r12
    25b5:	5d                   	pop    %rbp
    25b6:	c3                   	retq   
    25b7:	66 0f 1f 84 00 00 00 	nopw   0x0(%rax,%rax,1)
    25be:	00 00 
    25c0:	0f b7 93 a8 00 00 00 	movzwl 0xa8(%rbx),%edx
	if (!chan->unacked_frames)
    25c7:	66 85 d2             	test   %dx,%dx
    25ca:	75 e6                	jne    25b2 <l2cap_drop_acked_frames+0x82>
	ret = del_timer_sync(&work->timer);
    25cc:	48 8d bb 80 01 00 00 	lea    0x180(%rbx),%rdi
    25d3:	e8 00 00 00 00       	callq  25d8 <l2cap_drop_acked_frames+0xa8>
	if (ret)
    25d8:	85 c0                	test   %eax,%eax
    25da:	74 d6                	je     25b2 <l2cap_drop_acked_frames+0x82>
    25dc:	f0 80 a3 60 01 00 00 	lock andb $0xfe,0x160(%rbx)
    25e3:	fe 
    25e4:	f0 ff 4b 14          	lock decl 0x14(%rbx)
    25e8:	0f 94 c0             	sete   %al
	if (atomic_dec_and_test(&c->refcnt))
    25eb:	84 c0                	test   %al,%al
    25ed:	74 c3                	je     25b2 <l2cap_drop_acked_frames+0x82>
		kfree(c);
    25ef:	48 89 df             	mov    %rbx,%rdi
    25f2:	e8 00 00 00 00       	callq  25f7 <l2cap_drop_acked_frames+0xc7>
    25f7:	eb b9                	jmp    25b2 <l2cap_drop_acked_frames+0x82>
    25f9:	0f 1f 80 00 00 00 00 	nopl   0x0(%rax)

0000000000002600 <l2cap_send_disconn_req>:
{
    2600:	55                   	push   %rbp
    2601:	48 89 e5             	mov    %rsp,%rbp
    2604:	41 56                	push   %r14
    2606:	41 55                	push   %r13
    2608:	41 54                	push   %r12
    260a:	53                   	push   %rbx
    260b:	48 83 ec 10          	sub    $0x10,%rsp
    260f:	e8 00 00 00 00       	callq  2614 <l2cap_send_disconn_req+0x14>
	struct sock *sk = chan->sk;
    2614:	4c 8b 2e             	mov    (%rsi),%r13
	if (!conn)
    2617:	48 85 ff             	test   %rdi,%rdi
{
    261a:	49 89 fc             	mov    %rdi,%r12
    261d:	48 89 f3             	mov    %rsi,%rbx
    2620:	41 89 d6             	mov    %edx,%r14d
	if (!conn)
    2623:	74 60                	je     2685 <l2cap_send_disconn_req+0x85>
	if (chan->mode == L2CAP_MODE_ERTM) {
    2625:	80 7e 24 03          	cmpb   $0x3,0x24(%rsi)
    2629:	74 6d                	je     2698 <l2cap_send_disconn_req+0x98>
	req.dcid = cpu_to_le16(chan->dcid);
    262b:	0f b7 43 1a          	movzwl 0x1a(%rbx),%eax
	l2cap_send_cmd(conn, l2cap_get_ident(conn),
    262f:	4c 89 e7             	mov    %r12,%rdi
	req.dcid = cpu_to_le16(chan->dcid);
    2632:	66 89 45 dc          	mov    %ax,-0x24(%rbp)
	req.scid = cpu_to_le16(chan->scid);
    2636:	0f b7 43 1c          	movzwl 0x1c(%rbx),%eax
    263a:	66 89 45 de          	mov    %ax,-0x22(%rbp)
	l2cap_send_cmd(conn, l2cap_get_ident(conn),
    263e:	e8 6d de ff ff       	callq  4b0 <l2cap_get_ident>
    2643:	4c 8d 45 dc          	lea    -0x24(%rbp),%r8
    2647:	0f b6 f0             	movzbl %al,%esi
    264a:	b9 04 00 00 00       	mov    $0x4,%ecx
    264f:	ba 06 00 00 00       	mov    $0x6,%edx
    2654:	4c 89 e7             	mov    %r12,%rdi
    2657:	e8 64 ed ff ff       	callq  13c0 <l2cap_send_cmd>
    265c:	31 f6                	xor    %esi,%esi
    265e:	4c 89 ef             	mov    %r13,%rdi
    2661:	e8 00 00 00 00       	callq  2666 <l2cap_send_disconn_req+0x66>
	__l2cap_state_change(chan, BT_DISCONN);
    2666:	48 89 df             	mov    %rbx,%rdi
    2669:	be 08 00 00 00       	mov    $0x8,%esi
    266e:	e8 1d da ff ff       	callq  90 <__l2cap_state_change>
static void l2cap_send_disconn_req(struct l2cap_conn *conn, struct l2cap_chan *chan, int err)
    2673:	48 8b 03             	mov    (%rbx),%rax
	release_sock(sk);
    2676:	4c 89 ef             	mov    %r13,%rdi
	sk->sk_err = err;
    2679:	44 89 b0 7c 01 00 00 	mov    %r14d,0x17c(%rax)
	release_sock(sk);
    2680:	e8 00 00 00 00       	callq  2685 <l2cap_send_disconn_req+0x85>
}
    2685:	48 83 c4 10          	add    $0x10,%rsp
    2689:	5b                   	pop    %rbx
    268a:	41 5c                	pop    %r12
    268c:	41 5d                	pop    %r13
    268e:	41 5e                	pop    %r14
    2690:	5d                   	pop    %rbp
    2691:	c3                   	retq   
    2692:	66 0f 1f 44 00 00    	nopw   0x0(%rax,%rax,1)
	ret = del_timer_sync(&work->timer);
    2698:	48 8d be 80 01 00 00 	lea    0x180(%rsi),%rdi
    269f:	e8 00 00 00 00       	callq  26a4 <l2cap_send_disconn_req+0xa4>
	if (ret)
    26a4:	85 c0                	test   %eax,%eax
    26a6:	74 13                	je     26bb <l2cap_send_disconn_req+0xbb>
    26a8:	f0 80 a3 60 01 00 00 	lock andb $0xfe,0x160(%rbx)
    26af:	fe 
    26b0:	f0 ff 4b 14          	lock decl 0x14(%rbx)
    26b4:	0f 94 c0             	sete   %al
	if (atomic_dec_and_test(&c->refcnt))
    26b7:	84 c0                	test   %al,%al
    26b9:	75 75                	jne    2730 <l2cap_send_disconn_req+0x130>
	ret = del_timer_sync(&work->timer);
    26bb:	48 8d bb f0 01 00 00 	lea    0x1f0(%rbx),%rdi
    26c2:	e8 00 00 00 00       	callq  26c7 <l2cap_send_disconn_req+0xc7>
	if (ret)
    26c7:	85 c0                	test   %eax,%eax
    26c9:	74 13                	je     26de <l2cap_send_disconn_req+0xde>
    26cb:	f0 80 a3 d0 01 00 00 	lock andb $0xfe,0x1d0(%rbx)
    26d2:	fe 
    26d3:	f0 ff 4b 14          	lock decl 0x14(%rbx)
    26d7:	0f 94 c0             	sete   %al
    26da:	84 c0                	test   %al,%al
    26dc:	75 42                	jne    2720 <l2cap_send_disconn_req+0x120>
	ret = del_timer_sync(&work->timer);
    26de:	48 8d bb 60 02 00 00 	lea    0x260(%rbx),%rdi
    26e5:	e8 00 00 00 00       	callq  26ea <l2cap_send_disconn_req+0xea>
	if (ret)
    26ea:	85 c0                	test   %eax,%eax
    26ec:	0f 84 39 ff ff ff    	je     262b <l2cap_send_disconn_req+0x2b>
    26f2:	f0 80 a3 40 02 00 00 	lock andb $0xfe,0x240(%rbx)
    26f9:	fe 
    26fa:	f0 ff 4b 14          	lock decl 0x14(%rbx)
    26fe:	0f 94 c0             	sete   %al
    2701:	84 c0                	test   %al,%al
    2703:	0f 84 22 ff ff ff    	je     262b <l2cap_send_disconn_req+0x2b>
		kfree(c);
    2709:	48 89 df             	mov    %rbx,%rdi
    270c:	e8 00 00 00 00       	callq  2711 <l2cap_send_disconn_req+0x111>
    2711:	e9 15 ff ff ff       	jmpq   262b <l2cap_send_disconn_req+0x2b>
    2716:	66 2e 0f 1f 84 00 00 	nopw   %cs:0x0(%rax,%rax,1)
    271d:	00 00 00 
    2720:	48 89 df             	mov    %rbx,%rdi
    2723:	e8 00 00 00 00       	callq  2728 <l2cap_send_disconn_req+0x128>
    2728:	eb b4                	jmp    26de <l2cap_send_disconn_req+0xde>
    272a:	66 0f 1f 44 00 00    	nopw   0x0(%rax,%rax,1)
    2730:	48 89 df             	mov    %rbx,%rdi
    2733:	e8 00 00 00 00       	callq  2738 <l2cap_send_disconn_req+0x138>
    2738:	eb 81                	jmp    26bb <l2cap_send_disconn_req+0xbb>
    273a:	66 0f 1f 44 00 00    	nopw   0x0(%rax,%rax,1)

0000000000002740 <l2cap_config_req>:
{
    2740:	55                   	push   %rbp
    2741:	48 89 e5             	mov    %rsp,%rbp
    2744:	41 57                	push   %r15
    2746:	41 89 d7             	mov    %edx,%r15d
    2749:	41 56                	push   %r14
    274b:	49 89 ce             	mov    %rcx,%r14
    274e:	41 55                	push   %r13
    2750:	49 89 f5             	mov    %rsi,%r13
    2753:	41 54                	push   %r12
    2755:	49 89 fc             	mov    %rdi,%r12
    2758:	53                   	push   %rbx
    2759:	48 81 ec a8 00 00 00 	sub    $0xa8,%rsp
	dcid  = __le16_to_cpu(req->dcid);
    2760:	0f b7 19             	movzwl (%rcx),%ebx
{
    2763:	65 48 8b 04 25 28 00 	mov    %gs:0x28,%rax
    276a:	00 00 
    276c:	48 89 45 c8          	mov    %rax,-0x38(%rbp)
    2770:	31 c0                	xor    %eax,%eax
	flags = __le16_to_cpu(req->flags);
    2772:	0f b7 41 02          	movzwl 0x2(%rcx),%eax
	BT_DBG("dcid 0x%4.4x flags 0x%2.2x", dcid, flags);
    2776:	f6 05 00 00 00 00 04 	testb  $0x4,0x0(%rip)        # 277d <l2cap_config_req+0x3d>
	flags = __le16_to_cpu(req->flags);
    277d:	66 89 85 3e ff ff ff 	mov    %ax,-0xc2(%rbp)
	BT_DBG("dcid 0x%4.4x flags 0x%2.2x", dcid, flags);
    2784:	0f 85 9c 02 00 00    	jne    2a26 <l2cap_config_req+0x2e6>
	chan = l2cap_get_chan_by_scid(conn, dcid);
    278a:	89 de                	mov    %ebx,%esi
    278c:	4c 89 e7             	mov    %r12,%rdi
    278f:	e8 fc d9 ff ff       	callq  190 <l2cap_get_chan_by_scid>
	if (!chan)
    2794:	48 85 c0             	test   %rax,%rax
	chan = l2cap_get_chan_by_scid(conn, dcid);
    2797:	48 89 c3             	mov    %rax,%rbx
	if (!chan)
    279a:	0f 84 ff 01 00 00    	je     299f <l2cap_config_req+0x25f>
	if (chan->state != BT_CONFIG && chan->state != BT_CONNECT2) {
    27a0:	0f b6 40 10          	movzbl 0x10(%rax),%eax
    27a4:	83 e8 06             	sub    $0x6,%eax
    27a7:	3c 01                	cmp    $0x1,%al
    27a9:	76 7d                	jbe    2828 <l2cap_config_req+0xe8>
		rej.reason = cpu_to_le16(L2CAP_REJ_INVALID_CID);
    27ab:	b8 02 00 00 00       	mov    $0x2,%eax
		l2cap_send_cmd(conn, cmd->ident, L2CAP_COMMAND_REJ,
    27b0:	41 0f b6 75 01       	movzbl 0x1(%r13),%esi
    27b5:	4c 8d 85 42 ff ff ff 	lea    -0xbe(%rbp),%r8
		rej.reason = cpu_to_le16(L2CAP_REJ_INVALID_CID);
    27bc:	66 89 85 42 ff ff ff 	mov    %ax,-0xbe(%rbp)
		rej.scid = cpu_to_le16(chan->scid);
    27c3:	0f b7 43 1c          	movzwl 0x1c(%rbx),%eax
		l2cap_send_cmd(conn, cmd->ident, L2CAP_COMMAND_REJ,
    27c7:	4c 89 e7             	mov    %r12,%rdi
    27ca:	b9 06 00 00 00       	mov    $0x6,%ecx
    27cf:	ba 01 00 00 00       	mov    $0x1,%edx
	int len, err = 0;
    27d4:	45 31 e4             	xor    %r12d,%r12d
		rej.scid = cpu_to_le16(chan->scid);
    27d7:	66 89 85 44 ff ff ff 	mov    %ax,-0xbc(%rbp)
		rej.dcid = cpu_to_le16(chan->dcid);
    27de:	0f b7 43 1a          	movzwl 0x1a(%rbx),%eax
    27e2:	66 89 85 46 ff ff ff 	mov    %ax,-0xba(%rbp)
		l2cap_send_cmd(conn, cmd->ident, L2CAP_COMMAND_REJ,
    27e9:	e8 d2 eb ff ff       	callq  13c0 <l2cap_send_cmd>
	mutex_unlock(&chan->lock);
    27ee:	48 8d bb 48 03 00 00 	lea    0x348(%rbx),%rdi
    27f5:	e8 00 00 00 00       	callq  27fa <l2cap_config_req+0xba>
	return err;
    27fa:	44 89 e0             	mov    %r12d,%eax
}
    27fd:	48 8b 4d c8          	mov    -0x38(%rbp),%rcx
    2801:	65 48 33 0c 25 28 00 	xor    %gs:0x28,%rcx
    2808:	00 00 
    280a:	0f 85 11 02 00 00    	jne    2a21 <l2cap_config_req+0x2e1>
    2810:	48 81 c4 a8 00 00 00 	add    $0xa8,%rsp
    2817:	5b                   	pop    %rbx
    2818:	41 5c                	pop    %r12
    281a:	41 5d                	pop    %r13
    281c:	41 5e                	pop    %r14
    281e:	41 5f                	pop    %r15
    2820:	5d                   	pop    %rbp
    2821:	c3                   	retq   
    2822:	66 0f 1f 44 00 00    	nopw   0x0(%rax,%rax,1)
	len = cmd_len - sizeof(*req);
    2828:	45 0f b7 ff          	movzwl %r15w,%r15d
	if (len < 0 || chan->conf_len + len > sizeof(chan->conf_req)) {
    282c:	41 83 ef 04          	sub    $0x4,%r15d
    2830:	78 0f                	js     2841 <l2cap_config_req+0x101>
    2832:	0f b6 43 6c          	movzbl 0x6c(%rbx),%eax
    2836:	0f b6 d0             	movzbl %al,%edx
    2839:	44 01 fa             	add    %r15d,%edx
    283c:	83 fa 40             	cmp    $0x40,%edx
    283f:	76 3f                	jbe    2880 <l2cap_config_req+0x140>
				l2cap_build_conf_rsp(chan, rsp,
    2841:	0f b7 8d 3e ff ff ff 	movzwl -0xc2(%rbp),%ecx
    2848:	ba 02 00 00 00       	mov    $0x2,%edx
					l2cap_build_conf_rsp(chan, rsp,
    284d:	48 8d b5 48 ff ff ff 	lea    -0xb8(%rbp),%rsi
    2854:	48 89 df             	mov    %rbx,%rdi
    2857:	e8 c4 d8 ff ff       	callq  120 <l2cap_build_conf_rsp>
		l2cap_send_cmd(conn, cmd->ident, L2CAP_CONF_RSP,
    285c:	41 0f b6 75 01       	movzbl 0x1(%r13),%esi
    2861:	4c 8d 85 48 ff ff ff 	lea    -0xb8(%rbp),%r8
    2868:	0f b7 c8             	movzwl %ax,%ecx
    286b:	ba 05 00 00 00       	mov    $0x5,%edx
    2870:	4c 89 e7             	mov    %r12,%rdi
    2873:	e8 48 eb ff ff       	callq  13c0 <l2cap_send_cmd>
	int len, err = 0;
    2878:	45 31 e4             	xor    %r12d,%r12d
    287b:	e9 6e ff ff ff       	jmpq   27ee <l2cap_config_req+0xae>
	memcpy(chan->conf_req + chan->conf_len, req->data, len);
    2880:	48 8d 7c 03 2c       	lea    0x2c(%rbx,%rax,1),%rdi
    2885:	49 8d 76 04          	lea    0x4(%r14),%rsi
    2889:	49 63 d7             	movslq %r15d,%rdx
    288c:	e8 00 00 00 00       	callq  2891 <l2cap_config_req+0x151>
	chan->conf_len += len;
    2891:	44 00 7b 6c          	add    %r15b,0x6c(%rbx)
	if (flags & 0x0001) {
    2895:	f6 85 3e ff ff ff 01 	testb  $0x1,-0xc2(%rbp)
				l2cap_build_conf_rsp(chan, rsp,
    289c:	b9 01 00 00 00       	mov    $0x1,%ecx
	if (flags & 0x0001) {
    28a1:	0f 85 d9 00 00 00    	jne    2980 <l2cap_config_req+0x240>
	len = l2cap_parse_conf_req(chan, rsp);
    28a7:	48 8d b5 48 ff ff ff 	lea    -0xb8(%rbp),%rsi
    28ae:	48 89 df             	mov    %rbx,%rdi
    28b1:	e8 5a f1 ff ff       	callq  1a10 <l2cap_parse_conf_req>
	if (len < 0) {
    28b6:	85 c0                	test   %eax,%eax
    28b8:	0f 88 c9 00 00 00    	js     2987 <l2cap_config_req+0x247>
	l2cap_send_cmd(conn, cmd->ident, L2CAP_CONF_RSP, len, rsp);
    28be:	41 0f b6 75 01       	movzbl 0x1(%r13),%esi
    28c3:	4c 8d 85 48 ff ff ff 	lea    -0xb8(%rbp),%r8
    28ca:	0f b7 c8             	movzwl %ax,%ecx
    28cd:	ba 05 00 00 00       	mov    $0x5,%edx
    28d2:	4c 89 e7             	mov    %r12,%rdi
    28d5:	e8 e6 ea ff ff       	callq  13c0 <l2cap_send_cmd>
		(addr[nr / BITS_PER_LONG])) != 0;
    28da:	48 8b 83 80 00 00 00 	mov    0x80(%rbx),%rax
	chan->num_conf_rsp++;
    28e1:	80 43 6e 01          	addb   $0x1,0x6e(%rbx)
	chan->conf_len = 0;
    28e5:	c6 43 6c 00          	movb   $0x0,0x6c(%rbx)
	if (!test_bit(CONF_OUTPUT_DONE, &chan->conf_state))
    28e9:	a8 04                	test   $0x4,%al
    28eb:	74 8b                	je     2878 <l2cap_config_req+0x138>
    28ed:	48 8b 83 80 00 00 00 	mov    0x80(%rbx),%rax
	if (test_bit(CONF_INPUT_DONE, &chan->conf_state)) {
    28f4:	a8 02                	test   $0x2,%al
    28f6:	74 3f                	je     2937 <l2cap_config_req+0x1f7>
	if (chan->mode != L2CAP_MODE_ERTM && chan->mode != L2CAP_MODE_STREAMING)
    28f8:	0f b6 43 24          	movzbl 0x24(%rbx),%eax
    28fc:	83 e8 03             	sub    $0x3,%eax
    28ff:	3c 01                	cmp    $0x1,%al
    2901:	0f 86 da 00 00 00    	jbe    29e1 <l2cap_config_req+0x2a1>
		chan->fcs = L2CAP_FCS_NONE;
    2907:	c6 43 6f 00          	movb   $0x0,0x6f(%rbx)
		l2cap_state_change(chan, BT_CONNECTED);
    290b:	be 01 00 00 00       	mov    $0x1,%esi
    2910:	48 89 df             	mov    %rbx,%rdi
	int len, err = 0;
    2913:	45 31 e4             	xor    %r12d,%r12d
		l2cap_state_change(chan, BT_CONNECTED);
    2916:	e8 05 de ff ff       	callq  720 <l2cap_state_change>
		if (chan->mode == L2CAP_MODE_ERTM ||
    291b:	0f b6 43 24          	movzbl 0x24(%rbx),%eax
    291f:	83 e8 03             	sub    $0x3,%eax
    2922:	3c 01                	cmp    $0x1,%al
    2924:	0f 86 cf 00 00 00    	jbe    29f9 <l2cap_config_req+0x2b9>
			l2cap_chan_ready(chan);
    292a:	48 89 df             	mov    %rbx,%rdi
    292d:	e8 2e fb ff ff       	callq  2460 <l2cap_chan_ready>
    2932:	e9 b7 fe ff ff       	jmpq   27ee <l2cap_config_req+0xae>
	asm volatile(LOCK_PREFIX "bts %2,%1\n\t"
    2937:	f0 0f ba ab 80 00 00 	lock btsl $0x0,0x80(%rbx)
    293e:	00 00 
    2940:	19 c0                	sbb    %eax,%eax
	if (!test_and_set_bit(CONF_REQ_SENT, &chan->conf_state)) {
    2942:	85 c0                	test   %eax,%eax
    2944:	74 63                	je     29a9 <l2cap_config_req+0x269>
		(addr[nr / BITS_PER_LONG])) != 0;
    2946:	48 8b 83 80 00 00 00 	mov    0x80(%rbx),%rax
	if (test_bit(CONF_REM_CONF_PEND, &chan->conf_state) &&
    294d:	f6 c4 04             	test   $0x4,%ah
    2950:	0f 84 22 ff ff ff    	je     2878 <l2cap_config_req+0x138>
    2956:	48 8b 83 80 00 00 00 	mov    0x80(%rbx),%rax
    295d:	f6 c4 02             	test   $0x2,%ah
    2960:	0f 84 12 ff ff ff    	je     2878 <l2cap_config_req+0x138>
		asm volatile(LOCK_PREFIX "andb %1,%0"
    2966:	f0 80 a3 81 00 00 00 	lock andb $0xfd,0x81(%rbx)
    296d:	fd 
		asm volatile(LOCK_PREFIX "orb %1,%0"
    296e:	f0 80 8b 80 00 00 00 	lock orb $0x4,0x80(%rbx)
    2975:	04 
					l2cap_build_conf_rsp(chan, rsp,
    2976:	31 c9                	xor    %ecx,%ecx
    2978:	0f 1f 84 00 00 00 00 	nopl   0x0(%rax,%rax,1)
    297f:	00 
    2980:	31 d2                	xor    %edx,%edx
    2982:	e9 c6 fe ff ff       	jmpq   284d <l2cap_config_req+0x10d>
		l2cap_send_disconn_req(conn, chan, ECONNRESET);
    2987:	4c 89 e7             	mov    %r12,%rdi
    298a:	ba 68 00 00 00       	mov    $0x68,%edx
    298f:	48 89 de             	mov    %rbx,%rsi
    2992:	e8 69 fc ff ff       	callq  2600 <l2cap_send_disconn_req>
	int len, err = 0;
    2997:	45 31 e4             	xor    %r12d,%r12d
		goto unlock;
    299a:	e9 4f fe ff ff       	jmpq   27ee <l2cap_config_req+0xae>
		return -ENOENT;
    299f:	b8 fe ff ff ff       	mov    $0xfffffffe,%eax
    29a4:	e9 54 fe ff ff       	jmpq   27fd <l2cap_config_req+0xbd>
					l2cap_build_conf_req(chan, buf), buf);
    29a9:	48 8d 75 88          	lea    -0x78(%rbp),%rsi
    29ad:	48 89 df             	mov    %rbx,%rdi
    29b0:	e8 bb ec ff ff       	callq  1670 <l2cap_build_conf_req>
		l2cap_send_cmd(conn, l2cap_get_ident(conn), L2CAP_CONF_REQ,
    29b5:	4c 89 e7             	mov    %r12,%rdi
					l2cap_build_conf_req(chan, buf), buf);
    29b8:	41 89 c6             	mov    %eax,%r14d
		l2cap_send_cmd(conn, l2cap_get_ident(conn), L2CAP_CONF_REQ,
    29bb:	e8 f0 da ff ff       	callq  4b0 <l2cap_get_ident>
    29c0:	4c 8d 45 88          	lea    -0x78(%rbp),%r8
    29c4:	41 0f b7 ce          	movzwl %r14w,%ecx
    29c8:	0f b6 f0             	movzbl %al,%esi
    29cb:	ba 04 00 00 00       	mov    $0x4,%edx
    29d0:	4c 89 e7             	mov    %r12,%rdi
    29d3:	e8 e8 e9 ff ff       	callq  13c0 <l2cap_send_cmd>
		chan->num_conf_req++;
    29d8:	80 43 6d 01          	addb   $0x1,0x6d(%rbx)
    29dc:	e9 65 ff ff ff       	jmpq   2946 <l2cap_config_req+0x206>
		(addr[nr / BITS_PER_LONG])) != 0;
    29e1:	48 8b 83 80 00 00 00 	mov    0x80(%rbx),%rax
	else if (!test_bit(CONF_NO_FCS_RECV, &chan->conf_state))
    29e8:	a8 40                	test   $0x40,%al
    29ea:	0f 85 1b ff ff ff    	jne    290b <l2cap_config_req+0x1cb>
		chan->fcs = L2CAP_FCS_CRC16;
    29f0:	c6 43 6f 01          	movb   $0x1,0x6f(%rbx)
    29f4:	e9 12 ff ff ff       	jmpq   290b <l2cap_config_req+0x1cb>
			err = l2cap_ertm_init(chan);
    29f9:	48 89 df             	mov    %rbx,%rdi
    29fc:	e8 bf e2 ff ff       	callq  cc0 <l2cap_ertm_init>
		if (err < 0)
    2a01:	85 c0                	test   %eax,%eax
			err = l2cap_ertm_init(chan);
    2a03:	41 89 c4             	mov    %eax,%r12d
		if (err < 0)
    2a06:	0f 89 1e ff ff ff    	jns    292a <l2cap_config_req+0x1ea>
			l2cap_send_disconn_req(chan->conn, chan, -err);
    2a0c:	48 8b 7b 08          	mov    0x8(%rbx),%rdi
    2a10:	89 c2                	mov    %eax,%edx
    2a12:	48 89 de             	mov    %rbx,%rsi
    2a15:	f7 da                	neg    %edx
    2a17:	e8 e4 fb ff ff       	callq  2600 <l2cap_send_disconn_req>
    2a1c:	e9 cd fd ff ff       	jmpq   27ee <l2cap_config_req+0xae>
}
    2a21:	e8 00 00 00 00       	callq  2a26 <l2cap_config_req+0x2e6>
	BT_DBG("dcid 0x%4.4x flags 0x%2.2x", dcid, flags);
    2a26:	0f b7 8d 3e ff ff ff 	movzwl -0xc2(%rbp),%ecx
    2a2d:	89 da                	mov    %ebx,%edx
    2a2f:	48 c7 c6 00 00 00 00 	mov    $0x0,%rsi
    2a36:	48 c7 c7 00 00 00 00 	mov    $0x0,%rdi
    2a3d:	31 c0                	xor    %eax,%eax
    2a3f:	e8 00 00 00 00       	callq  2a44 <l2cap_config_req+0x304>
    2a44:	e9 41 fd ff ff       	jmpq   278a <l2cap_config_req+0x4a>
    2a49:	0f 1f 80 00 00 00 00 	nopl   0x0(%rax)

0000000000002a50 <l2cap_ertm_send>:
{
    2a50:	55                   	push   %rbp
    2a51:	48 89 e5             	mov    %rsp,%rbp
    2a54:	41 57                	push   %r15
    2a56:	41 56                	push   %r14
    2a58:	41 55                	push   %r13
    2a5a:	41 54                	push   %r12
    2a5c:	53                   	push   %rbx
    2a5d:	48 83 ec 28          	sub    $0x28,%rsp
    2a61:	e8 00 00 00 00       	callq  2a66 <l2cap_ertm_send+0x16>
	if (chan->state != BT_CONNECTED)
    2a66:	80 7f 10 01          	cmpb   $0x1,0x10(%rdi)
		return -ENOTCONN;
    2a6a:	b8 95 ff ff ff       	mov    $0xffffff95,%eax
{
    2a6f:	49 89 ff             	mov    %rdi,%r15
	if (chan->state != BT_CONNECTED)
    2a72:	0f 85 e6 02 00 00    	jne    2d5e <l2cap_ertm_send+0x30e>
    2a78:	48 8b 97 88 00 00 00 	mov    0x88(%rdi),%rdx
		return 0;
    2a7f:	31 c0                	xor    %eax,%eax
	if (test_bit(CONN_REMOTE_BUSY, &chan->conn_state))
    2a81:	83 e2 10             	and    $0x10,%edx
    2a84:	0f 85 d4 02 00 00    	jne    2d5e <l2cap_ertm_send+0x30e>
	ret = del_timer_sync(&work->timer);
    2a8a:	48 8d 87 60 02 00 00 	lea    0x260(%rdi),%rax
    2a91:	4c 8b af b0 02 00 00 	mov    0x2b0(%rdi),%r13
    2a98:	c7 45 c4 00 00 00 00 	movl   $0x0,-0x3c(%rbp)
		__set_retrans_timer(chan);
    2a9f:	48 8d 9f 60 01 00 00 	lea    0x160(%rdi),%rbx
    2aa6:	4c 8d b7 80 01 00 00 	lea    0x180(%rdi),%r14
    2aad:	48 89 45 b8          	mov    %rax,-0x48(%rbp)
		if (skb_queue_is_last(&chan->tx_q, skb))
    2ab1:	48 8d 87 b8 02 00 00 	lea    0x2b8(%rdi),%rax
    2ab8:	48 89 45 c8          	mov    %rax,-0x38(%rbp)
    2abc:	e9 6f 01 00 00       	jmpq   2c30 <l2cap_ertm_send+0x1e0>
    2ac1:	0f 1f 80 00 00 00 00 	nopl   0x0(%rax)
static inline u32 get_unaligned_le32(const void *p)
    2ac8:	8b 4a 04             	mov    0x4(%rdx),%ecx
    2acb:	49 8b 87 90 00 00 00 	mov    0x90(%r15),%rax
    2ad2:	83 e0 10             	and    $0x10,%eax
}

static inline __u32 __get_sar_mask(struct l2cap_chan *chan)
{
	if (test_bit(FLAG_EXT_CTRL, &chan->flags))
		return L2CAP_EXT_CTRL_SAR;
    2ad5:	48 83 f8 01          	cmp    $0x1,%rax
    2ad9:	19 d2                	sbb    %edx,%edx
    2adb:	81 e2 00 c0 fd ff    	and    $0xfffdc000,%edx
    2ae1:	81 c2 00 00 03 00    	add    $0x30000,%edx
		control &= __get_sar_mask(chan);
    2ae7:	21 ca                	and    %ecx,%edx
	asm volatile(LOCK_PREFIX "btr %2,%1\n\t"
    2ae9:	f0 41 0f ba b7 88 00 	lock btrl $0x7,0x88(%r15)
    2af0:	00 00 07 
    2af3:	19 c0                	sbb    %eax,%eax
		if (test_and_clear_bit(CONN_SEND_FBIT, &chan->conn_state))
    2af5:	85 c0                	test   %eax,%eax
    2af7:	74 18                	je     2b11 <l2cap_ertm_send+0xc1>
		(addr[nr / BITS_PER_LONG])) != 0;
    2af9:	49 8b 87 90 00 00 00 	mov    0x90(%r15),%rax
    2b00:	83 e0 10             	and    $0x10,%eax
}

static inline __u32 __set_ctrl_final(struct l2cap_chan *chan)
{
	if (test_bit(FLAG_EXT_CTRL, &chan->flags))
		return L2CAP_EXT_CTRL_FINAL;
    2b03:	48 83 f8 01          	cmp    $0x1,%rax
    2b07:	19 c0                	sbb    %eax,%eax
    2b09:	83 e0 7e             	and    $0x7e,%eax
    2b0c:	83 c0 02             	add    $0x2,%eax
			control |= __set_ctrl_final(chan);
    2b0f:	09 c2                	or     %eax,%edx
    2b11:	49 8b 8f 90 00 00 00 	mov    0x90(%r15),%rcx
		control |= __set_reqseq(chan, chan->buffer_seq);
    2b18:	41 0f b7 87 9e 00 00 	movzwl 0x9e(%r15),%eax
    2b1f:	00 
	if (test_bit(FLAG_EXT_CTRL, &chan->flags))
    2b20:	83 e1 10             	and    $0x10,%ecx
    2b23:	0f 84 e7 01 00 00    	je     2d10 <l2cap_ertm_send+0x2c0>
		return (reqseq << L2CAP_EXT_CTRL_REQSEQ_SHIFT) &
    2b29:	c1 e0 02             	shl    $0x2,%eax
    2b2c:	0f b7 c0             	movzwl %ax,%eax
    2b2f:	49 8b 8f 90 00 00 00 	mov    0x90(%r15),%rcx
    2b36:	09 c2                	or     %eax,%edx
		control |= __set_txseq(chan, chan->next_tx_seq);
    2b38:	41 0f b7 87 98 00 00 	movzwl 0x98(%r15),%eax
    2b3f:	00 
	if (test_bit(FLAG_EXT_CTRL, &chan->flags))
    2b40:	83 e1 10             	and    $0x10,%ecx
    2b43:	0f 84 b7 01 00 00    	je     2d00 <l2cap_ertm_send+0x2b0>
		return (txseq << L2CAP_EXT_CTRL_TXSEQ_SHIFT) &
    2b49:	c1 e0 12             	shl    $0x12,%eax
    2b4c:	09 c2                	or     %eax,%edx
		control |= __set_ctrl_sar(chan, bt_cb(skb)->control.sar);
    2b4e:	41 0f b6 45 30       	movzbl 0x30(%r13),%eax
    2b53:	c0 e8 04             	shr    $0x4,%al
    2b56:	89 c6                	mov    %eax,%esi
    2b58:	49 8b 87 90 00 00 00 	mov    0x90(%r15),%rax
    2b5f:	83 e6 03             	and    $0x3,%esi
		return (sar << L2CAP_CTRL_SAR_SHIFT) & L2CAP_CTRL_SAR;
    2b62:	89 f1                	mov    %esi,%ecx
    2b64:	c1 e1 0e             	shl    $0xe,%ecx
	if (test_bit(FLAG_EXT_CTRL, &chan->flags))
    2b67:	a8 10                	test   $0x10,%al
    2b69:	74 05                	je     2b70 <l2cap_ertm_send+0x120>
		return (sar << L2CAP_EXT_CTRL_SAR_SHIFT) & L2CAP_EXT_CTRL_SAR;
    2b6b:	c1 e6 10             	shl    $0x10,%esi
    2b6e:	89 f1                	mov    %esi,%ecx
    2b70:	49 8b b7 90 00 00 00 	mov    0x90(%r15),%rsi
    2b77:	09 ca                	or     %ecx,%edx
		__put_control(chan, control, tx_skb->data + L2CAP_HDR_SIZE);
    2b79:	49 8b bc 24 e0 00 00 	mov    0xe0(%r12),%rdi
    2b80:	00 
}

static inline void __put_control(struct l2cap_chan *chan, __u32 control,
								void *p)
{
	if (test_bit(FLAG_EXT_CTRL, &chan->flags))
    2b81:	83 e6 10             	and    $0x10,%esi
    2b84:	0f 84 36 01 00 00    	je     2cc0 <l2cap_ertm_send+0x270>
	*((__le16 *)p) = cpu_to_le16(val);
}

static inline void put_unaligned_le32(u32 val, void *p)
{
	*((__le32 *)p) = cpu_to_le32(val);
    2b8a:	89 57 04             	mov    %edx,0x4(%rdi)
		if (chan->fcs == L2CAP_FCS_CRC16) {
    2b8d:	41 80 7f 6f 01       	cmpb   $0x1,0x6f(%r15)
    2b92:	0f 84 37 01 00 00    	je     2ccf <l2cap_ertm_send+0x27f>
		l2cap_do_send(chan, tx_skb);
    2b98:	4c 89 e6             	mov    %r12,%rsi
    2b9b:	4c 89 ff             	mov    %r15,%rdi
    2b9e:	e8 5d d9 ff ff       	callq  500 <l2cap_do_send>
		__set_retrans_timer(chan);
    2ba3:	bf d0 07 00 00       	mov    $0x7d0,%edi
    2ba8:	e8 00 00 00 00       	callq  2bad <l2cap_ertm_send+0x15d>
	BT_DBG("chan %p state %s timeout %ld", chan,
    2bad:	f6 05 00 00 00 00 04 	testb  $0x4,0x0(%rip)        # 2bb4 <l2cap_ertm_send+0x164>
    2bb4:	49 89 c4             	mov    %rax,%r12
    2bb7:	0f 85 0e 02 00 00    	jne    2dcb <l2cap_ertm_send+0x37b>
    2bbd:	4c 89 f7             	mov    %r14,%rdi
    2bc0:	e8 00 00 00 00       	callq  2bc5 <l2cap_ertm_send+0x175>
	if (ret)
    2bc5:	85 c0                	test   %eax,%eax
    2bc7:	0f 84 53 01 00 00    	je     2d20 <l2cap_ertm_send+0x2d0>
		asm volatile(LOCK_PREFIX "andb %1,%0"
    2bcd:	f0 80 23 fe          	lock andb $0xfe,(%rbx)
	schedule_delayed_work(work, timeout);
    2bd1:	4c 89 e6             	mov    %r12,%rsi
    2bd4:	48 89 df             	mov    %rbx,%rdi
    2bd7:	e8 00 00 00 00       	callq  2bdc <l2cap_ertm_send+0x18c>
		bt_cb(skb)->control.txseq = chan->next_tx_seq;
    2bdc:	41 0f b7 87 98 00 00 	movzwl 0x98(%r15),%eax
    2be3:	00 
    2be4:	66 41 89 45 34       	mov    %ax,0x34(%r13)
	return (seq + 1) % (chan->tx_win_max + 1);
    2be9:	41 0f b7 87 98 00 00 	movzwl 0x98(%r15),%eax
    2bf0:	00 
    2bf1:	41 0f b7 4f 72       	movzwl 0x72(%r15),%ecx
    2bf6:	83 c0 01             	add    $0x1,%eax
    2bf9:	83 c1 01             	add    $0x1,%ecx
    2bfc:	99                   	cltd   
    2bfd:	f7 f9                	idiv   %ecx
    2bff:	66 41 89 97 98 00 00 	mov    %dx,0x98(%r15)
    2c06:	00 
		if (bt_cb(skb)->control.retries == 1) {
    2c07:	41 80 7d 36 01       	cmpb   $0x1,0x36(%r13)
    2c0c:	0f 84 1e 01 00 00    	je     2d30 <l2cap_ertm_send+0x2e0>
		chan->frames_sent++;
    2c12:	66 41 83 87 a6 00 00 	addw   $0x1,0xa6(%r15)
    2c19:	00 01 
	struct sk_buff *skb, *tx_skb;
    2c1b:	4d 8b 6d 00          	mov    0x0(%r13),%r13
		if (skb_queue_is_last(&chan->tx_q, skb))
    2c1f:	4c 3b 6d c8          	cmp    -0x38(%rbp),%r13
    2c23:	0f 84 27 01 00 00    	je     2d50 <l2cap_ertm_send+0x300>
			chan->tx_send_head = skb_queue_next(&chan->tx_q, skb);
    2c29:	4d 89 af b0 02 00 00 	mov    %r13,0x2b0(%r15)
	while ((skb = chan->tx_send_head) && (!l2cap_tx_window_full(chan))) {
    2c30:	4d 85 ed             	test   %r13,%r13
    2c33:	0f 84 22 01 00 00    	je     2d5b <l2cap_ertm_send+0x30b>
	sub = (ch->next_tx_seq - ch->expected_ack_seq) % 64;
    2c39:	41 0f b7 97 9a 00 00 	movzwl 0x9a(%r15),%edx
    2c40:	00 
    2c41:	41 0f b7 87 98 00 00 	movzwl 0x98(%r15),%eax
    2c48:	00 
    2c49:	29 d0                	sub    %edx,%eax
    2c4b:	99                   	cltd   
    2c4c:	c1 ea 1a             	shr    $0x1a,%edx
    2c4f:	01 d0                	add    %edx,%eax
    2c51:	83 e0 3f             	and    $0x3f,%eax
    2c54:	29 d0                	sub    %edx,%eax
		sub += 64;
    2c56:	8d 50 40             	lea    0x40(%rax),%edx
    2c59:	85 c0                	test   %eax,%eax
    2c5b:	0f 48 c2             	cmovs  %edx,%eax
	return sub == ch->remote_tx_win;
    2c5e:	41 0f b7 97 c8 00 00 	movzwl 0xc8(%r15),%edx
    2c65:	00 
    2c66:	39 c2                	cmp    %eax,%edx
    2c68:	0f 84 ed 00 00 00    	je     2d5b <l2cap_ertm_send+0x30b>
		if (bt_cb(skb)->control.retries == chan->remote_max_tx &&
    2c6e:	41 0f b6 45 36       	movzbl 0x36(%r13),%eax
    2c73:	41 3a 87 ca 00 00 00 	cmp    0xca(%r15),%al
    2c7a:	75 08                	jne    2c84 <l2cap_ertm_send+0x234>
    2c7c:	84 c0                	test   %al,%al
    2c7e:	0f 85 34 01 00 00    	jne    2db8 <l2cap_ertm_send+0x368>
		tx_skb = skb_clone(skb, GFP_ATOMIC);
    2c84:	be 20 00 00 00       	mov    $0x20,%esi
    2c89:	4c 89 ef             	mov    %r13,%rdi
    2c8c:	e8 00 00 00 00       	callq  2c91 <l2cap_ertm_send+0x241>
		bt_cb(skb)->control.retries++;
    2c91:	41 80 45 36 01       	addb   $0x1,0x36(%r13)
		tx_skb = skb_clone(skb, GFP_ATOMIC);
    2c96:	49 89 c4             	mov    %rax,%r12
		control = __get_control(chan, tx_skb->data + L2CAP_HDR_SIZE);
    2c99:	48 8b 90 e0 00 00 00 	mov    0xe0(%rax),%rdx
		(addr[nr / BITS_PER_LONG])) != 0;
    2ca0:	49 8b 87 90 00 00 00 	mov    0x90(%r15),%rax
	if (test_bit(FLAG_EXT_CTRL, &chan->flags))
    2ca7:	a8 10                	test   $0x10,%al
    2ca9:	0f 85 19 fe ff ff    	jne    2ac8 <l2cap_ertm_send+0x78>
		return get_unaligned_le16(p);
    2caf:	0f b7 4a 04          	movzwl 0x4(%rdx),%ecx
    2cb3:	e9 13 fe ff ff       	jmpq   2acb <l2cap_ertm_send+0x7b>
    2cb8:	0f 1f 84 00 00 00 00 	nopl   0x0(%rax,%rax,1)
    2cbf:	00 
    2cc0:	66 89 57 04          	mov    %dx,0x4(%rdi)
		if (chan->fcs == L2CAP_FCS_CRC16) {
    2cc4:	41 80 7f 6f 01       	cmpb   $0x1,0x6f(%r15)
    2cc9:	0f 85 c9 fe ff ff    	jne    2b98 <l2cap_ertm_send+0x148>
						tx_skb->len - L2CAP_FCS_SIZE);
    2ccf:	41 8b 44 24 68       	mov    0x68(%r12),%eax
			fcs = crc16(0, (u8 *)skb->data,
    2cd4:	49 8b b5 e0 00 00 00 	mov    0xe0(%r13),%rsi
    2cdb:	31 ff                	xor    %edi,%edi
    2cdd:	8d 50 fe             	lea    -0x2(%rax),%edx
    2ce0:	e8 00 00 00 00       	callq  2ce5 <l2cap_ertm_send+0x295>
						tx_skb->len - L2CAP_FCS_SIZE);
    2ce5:	41 8b 54 24 68       	mov    0x68(%r12),%edx
	*((__le16 *)p) = cpu_to_le16(val);
    2cea:	49 8b 8d e0 00 00 00 	mov    0xe0(%r13),%rcx
    2cf1:	66 89 44 11 fe       	mov    %ax,-0x2(%rcx,%rdx,1)
    2cf6:	e9 9d fe ff ff       	jmpq   2b98 <l2cap_ertm_send+0x148>
    2cfb:	0f 1f 44 00 00       	nopl   0x0(%rax,%rax,1)
		return (txseq << L2CAP_CTRL_TXSEQ_SHIFT) & L2CAP_CTRL_TXSEQ;
    2d00:	01 c0                	add    %eax,%eax
    2d02:	83 e0 7e             	and    $0x7e,%eax
    2d05:	e9 42 fe ff ff       	jmpq   2b4c <l2cap_ertm_send+0xfc>
    2d0a:	66 0f 1f 44 00 00    	nopw   0x0(%rax,%rax,1)
		return (reqseq << L2CAP_CTRL_REQSEQ_SHIFT) & L2CAP_CTRL_REQSEQ;
    2d10:	c1 e0 08             	shl    $0x8,%eax
    2d13:	25 00 3f 00 00       	and    $0x3f00,%eax
    2d18:	e9 12 fe ff ff       	jmpq   2b2f <l2cap_ertm_send+0xdf>
    2d1d:	0f 1f 00             	nopl   (%rax)
	asm volatile(LOCK_PREFIX "incl %0"
    2d20:	f0 41 ff 47 14       	lock incl 0x14(%r15)
    2d25:	e9 a7 fe ff ff       	jmpq   2bd1 <l2cap_ertm_send+0x181>
    2d2a:	66 0f 1f 44 00 00    	nopw   0x0(%rax,%rax,1)
			if (!nsent++)
    2d30:	8b 45 c4             	mov    -0x3c(%rbp),%eax
			chan->unacked_frames++;
    2d33:	66 41 83 87 a8 00 00 	addw   $0x1,0xa8(%r15)
    2d3a:	00 01 
			if (!nsent++)
    2d3c:	85 c0                	test   %eax,%eax
    2d3e:	74 30                	je     2d70 <l2cap_ertm_send+0x320>
    2d40:	83 45 c4 01          	addl   $0x1,-0x3c(%rbp)
    2d44:	e9 c9 fe ff ff       	jmpq   2c12 <l2cap_ertm_send+0x1c2>
    2d49:	0f 1f 80 00 00 00 00 	nopl   0x0(%rax)
			chan->tx_send_head = NULL;
    2d50:	49 c7 87 b0 02 00 00 	movq   $0x0,0x2b0(%r15)
    2d57:	00 00 00 00 
		return 0;
    2d5b:	8b 45 c4             	mov    -0x3c(%rbp),%eax
}
    2d5e:	48 83 c4 28          	add    $0x28,%rsp
    2d62:	5b                   	pop    %rbx
    2d63:	41 5c                	pop    %r12
    2d65:	41 5d                	pop    %r13
    2d67:	41 5e                	pop    %r14
    2d69:	41 5f                	pop    %r15
    2d6b:	5d                   	pop    %rbp
    2d6c:	c3                   	retq   
    2d6d:	0f 1f 00             	nopl   (%rax)
	ret = del_timer_sync(&work->timer);
    2d70:	48 8b 7d b8          	mov    -0x48(%rbp),%rdi
    2d74:	e8 00 00 00 00       	callq  2d79 <l2cap_ertm_send+0x329>
	if (ret)
    2d79:	85 c0                	test   %eax,%eax
    2d7b:	74 15                	je     2d92 <l2cap_ertm_send+0x342>
		asm volatile(LOCK_PREFIX "andb %1,%0"
    2d7d:	f0 41 80 a7 40 02 00 	lock andb $0xfe,0x240(%r15)
    2d84:	00 fe 
	asm volatile(LOCK_PREFIX "decl %0; sete %1"
    2d86:	f0 41 ff 4f 14       	lock decl 0x14(%r15)
    2d8b:	0f 94 c0             	sete   %al
	if (atomic_dec_and_test(&c->refcnt))
    2d8e:	84 c0                	test   %al,%al
    2d90:	75 0e                	jne    2da0 <l2cap_ertm_send+0x350>
		kfree(c);
    2d92:	c7 45 c4 01 00 00 00 	movl   $0x1,-0x3c(%rbp)
    2d99:	e9 74 fe ff ff       	jmpq   2c12 <l2cap_ertm_send+0x1c2>
    2d9e:	66 90                	xchg   %ax,%ax
    2da0:	4c 89 ff             	mov    %r15,%rdi
    2da3:	e8 00 00 00 00       	callq  2da8 <l2cap_ertm_send+0x358>
    2da8:	c7 45 c4 01 00 00 00 	movl   $0x1,-0x3c(%rbp)
    2daf:	e9 5e fe ff ff       	jmpq   2c12 <l2cap_ertm_send+0x1c2>
    2db4:	0f 1f 40 00          	nopl   0x0(%rax)
			l2cap_send_disconn_req(chan->conn, chan, ECONNABORTED);
    2db8:	49 8b 7f 08          	mov    0x8(%r15),%rdi
    2dbc:	ba 67 00 00 00       	mov    $0x67,%edx
    2dc1:	4c 89 fe             	mov    %r15,%rsi
    2dc4:	e8 37 f8 ff ff       	callq  2600 <l2cap_send_disconn_req>
    2dc9:	eb 90                	jmp    2d5b <l2cap_ertm_send+0x30b>
	switch (state) {
    2dcb:	41 0f b6 47 10       	movzbl 0x10(%r15),%eax
    2dd0:	48 c7 c1 00 00 00 00 	mov    $0x0,%rcx
    2dd7:	83 e8 01             	sub    $0x1,%eax
    2dda:	83 f8 08             	cmp    $0x8,%eax
    2ddd:	77 08                	ja     2de7 <l2cap_ertm_send+0x397>
    2ddf:	48 8b 0c c5 00 00 00 	mov    0x0(,%rax,8),%rcx
    2de6:	00 
	BT_DBG("chan %p state %s timeout %ld", chan,
    2de7:	4d 89 e0             	mov    %r12,%r8
    2dea:	4c 89 fa             	mov    %r15,%rdx
    2ded:	48 c7 c6 00 00 00 00 	mov    $0x0,%rsi
    2df4:	48 c7 c7 00 00 00 00 	mov    $0x0,%rdi
    2dfb:	31 c0                	xor    %eax,%eax
    2dfd:	e8 00 00 00 00       	callq  2e02 <l2cap_ertm_send+0x3b2>
    2e02:	e9 b6 fd ff ff       	jmpq   2bbd <l2cap_ertm_send+0x16d>
    2e07:	66 0f 1f 84 00 00 00 	nopw   0x0(%rax,%rax,1)
    2e0e:	00 00 

0000000000002e10 <l2cap_send_srejtail>:
{
    2e10:	55                   	push   %rbp
    2e11:	48 89 e5             	mov    %rsp,%rbp
    2e14:	41 57                	push   %r15
    2e16:	41 56                	push   %r14
    2e18:	41 55                	push   %r13
    2e1a:	41 54                	push   %r12
    2e1c:	53                   	push   %rbx
    2e1d:	48 83 ec 18          	sub    $0x18,%rsp
    2e21:	e8 00 00 00 00       	callq  2e26 <l2cap_send_srejtail+0x16>
		(addr[nr / BITS_PER_LONG])) != 0;
    2e26:	48 8b 87 90 00 00 00 	mov    0x90(%rdi),%rax
	control |= __set_reqseq(chan, tail->tx_seq);
    2e2d:	48 8b 8f 10 03 00 00 	mov    0x310(%rdi),%rcx
{
    2e34:	48 89 fb             	mov    %rdi,%rbx
    2e37:	48 c1 e8 04          	shr    $0x4,%rax
	control |= __set_reqseq(chan, tail->tx_seq);
    2e3b:	0f b7 49 f8          	movzwl -0x8(%rcx),%ecx
    2e3f:	83 e0 01             	and    $0x1,%eax
		return (super << L2CAP_EXT_CTRL_SUPER_SHIFT) &
    2e42:	48 83 f8 01          	cmp    $0x1,%rax
    2e46:	48 8b 87 90 00 00 00 	mov    0x90(%rdi),%rax
    2e4d:	48 8b bf 90 00 00 00 	mov    0x90(%rdi),%rdi
    2e54:	19 d2                	sbb    %edx,%edx
    2e56:	81 e2 0c 00 fd ff    	and    $0xfffd000c,%edx
		return (reqseq << L2CAP_CTRL_REQSEQ_SHIFT) & L2CAP_CTRL_REQSEQ;
    2e5c:	89 ce                	mov    %ecx,%esi
    2e5e:	48 c1 e8 04          	shr    $0x4,%rax
		return (super << L2CAP_EXT_CTRL_SUPER_SHIFT) &
    2e62:	81 c2 00 00 03 00    	add    $0x30000,%edx
    2e68:	83 e0 01             	and    $0x1,%eax
		return L2CAP_EXT_CTRL_FINAL;
    2e6b:	48 83 f8 01          	cmp    $0x1,%rax
    2e6f:	19 c0                	sbb    %eax,%eax
		return (reqseq << L2CAP_CTRL_REQSEQ_SHIFT) & L2CAP_CTRL_REQSEQ;
    2e71:	c1 e6 08             	shl    $0x8,%esi
		return L2CAP_EXT_CTRL_FINAL;
    2e74:	83 e0 7e             	and    $0x7e,%eax
		return (reqseq << L2CAP_CTRL_REQSEQ_SHIFT) & L2CAP_CTRL_REQSEQ;
    2e77:	81 e6 00 3f 00 00    	and    $0x3f00,%esi
		return L2CAP_EXT_CTRL_FINAL;
    2e7d:	83 c0 02             	add    $0x2,%eax
	if (test_bit(FLAG_EXT_CTRL, &chan->flags))
    2e80:	83 e7 10             	and    $0x10,%edi
    2e83:	74 0a                	je     2e8f <l2cap_send_srejtail+0x7f>
		return (reqseq << L2CAP_EXT_CTRL_REQSEQ_SHIFT) &
    2e85:	8d 34 8d 00 00 00 00 	lea    0x0(,%rcx,4),%esi
    2e8c:	0f b7 f6             	movzwl %si,%esi
	if (chan->state != BT_CONNECTED)
    2e8f:	80 7b 10 01          	cmpb   $0x1,0x10(%rbx)
	struct l2cap_conn *conn = chan->conn;
    2e93:	4c 8b 6b 08          	mov    0x8(%rbx),%r13
	if (chan->state != BT_CONNECTED)
    2e97:	74 17                	je     2eb0 <l2cap_send_srejtail+0xa0>
}
    2e99:	48 83 c4 18          	add    $0x18,%rsp
    2e9d:	5b                   	pop    %rbx
    2e9e:	41 5c                	pop    %r12
    2ea0:	41 5d                	pop    %r13
    2ea2:	41 5e                	pop    %r14
    2ea4:	41 5f                	pop    %r15
    2ea6:	5d                   	pop    %rbp
    2ea7:	c3                   	retq   
    2ea8:	0f 1f 84 00 00 00 00 	nopl   0x0(%rax,%rax,1)
    2eaf:	00 
    2eb0:	48 8b 8b 90 00 00 00 	mov    0x90(%rbx),%rcx
    2eb7:	48 c1 e9 04          	shr    $0x4,%rcx
    2ebb:	83 e1 01             	and    $0x1,%ecx
		hlen = L2CAP_EXT_HDR_SIZE;
    2ebe:	48 83 f9 01          	cmp    $0x1,%rcx
    2ec2:	45 19 e4             	sbb    %r12d,%r12d
    2ec5:	41 83 e4 fe          	and    $0xfffffffe,%r12d
    2ec9:	41 83 c4 08          	add    $0x8,%r12d
		hlen += L2CAP_FCS_SIZE;
    2ecd:	80 7b 6f 01          	cmpb   $0x1,0x6f(%rbx)
    2ed1:	41 8d 4c 24 02       	lea    0x2(%r12),%ecx
    2ed6:	44 0f 44 e1          	cmove  %ecx,%r12d
	control |= __set_ctrl_final(chan);
    2eda:	09 d0                	or     %edx,%eax
    2edc:	41 89 c6             	mov    %eax,%r14d
	control |= __set_reqseq(chan, tail->tx_seq);
    2edf:	41 09 f6             	or     %esi,%r14d
	BT_DBG("chan %p, control 0x%8.8x", chan, control);
    2ee2:	f6 05 00 00 00 00 04 	testb  $0x4,0x0(%rip)        # 2ee9 <l2cap_send_srejtail+0xd9>
    2ee9:	0f 85 73 01 00 00    	jne    3062 <l2cap_send_srejtail+0x252>
	count = min_t(unsigned int, conn->mtu, hlen);
    2eef:	45 8b 7d 20          	mov    0x20(%r13),%r15d
    2ef3:	48 8b 83 90 00 00 00 	mov    0x90(%rbx),%rax
    2efa:	45 39 fc             	cmp    %r15d,%r12d
    2efd:	45 0f 46 fc          	cmovbe %r12d,%r15d
	control |= __set_sframe(chan);
    2f01:	41 83 ce 01          	or     $0x1,%r14d
	asm volatile(LOCK_PREFIX "btr %2,%1\n\t"
    2f05:	f0 0f ba b3 88 00 00 	lock btrl $0x7,0x88(%rbx)
    2f0c:	00 07 
    2f0e:	19 c0                	sbb    %eax,%eax
	if (test_and_clear_bit(CONN_SEND_FBIT, &chan->conn_state))
    2f10:	85 c0                	test   %eax,%eax
    2f12:	74 1d                	je     2f31 <l2cap_send_srejtail+0x121>
		(addr[nr / BITS_PER_LONG])) != 0;
    2f14:	48 8b 83 90 00 00 00 	mov    0x90(%rbx),%rax
    2f1b:	48 c1 e8 04          	shr    $0x4,%rax
    2f1f:	83 e0 01             	and    $0x1,%eax
		return L2CAP_EXT_CTRL_FINAL;
    2f22:	48 83 f8 01          	cmp    $0x1,%rax
    2f26:	19 c0                	sbb    %eax,%eax
    2f28:	83 e0 7e             	and    $0x7e,%eax
    2f2b:	83 c0 02             	add    $0x2,%eax
		control |= __set_ctrl_final(chan);
    2f2e:	41 09 c6             	or     %eax,%r14d
	asm volatile(LOCK_PREFIX "btr %2,%1\n\t"
    2f31:	f0 0f ba b3 88 00 00 	lock btrl $0x3,0x88(%rbx)
    2f38:	00 03 
    2f3a:	19 c0                	sbb    %eax,%eax
	if (test_and_clear_bit(CONN_SEND_PBIT, &chan->conn_state))
    2f3c:	85 c0                	test   %eax,%eax
    2f3e:	0f 85 bc 00 00 00    	jne    3000 <l2cap_send_srejtail+0x1f0>
	if ((skb = alloc_skb(len + BT_SKB_RESERVE, how))) {
    2f44:	41 8d 7f 08          	lea    0x8(%r15),%edi
	return __alloc_skb(size, priority, 0, NUMA_NO_NODE);
    2f48:	31 d2                	xor    %edx,%edx
    2f4a:	b9 ff ff ff ff       	mov    $0xffffffff,%ecx
    2f4f:	be 20 00 00 00       	mov    $0x20,%esi
    2f54:	e8 00 00 00 00       	callq  2f59 <l2cap_send_srejtail+0x149>
    2f59:	48 85 c0             	test   %rax,%rax
    2f5c:	49 89 c5             	mov    %rax,%r13
    2f5f:	0f 84 34 ff ff ff    	je     2e99 <l2cap_send_srejtail+0x89>
	skb->data += len;
    2f65:	48 83 80 e0 00 00 00 	addq   $0x8,0xe0(%rax)
    2f6c:	08 
	skb->tail += len;
    2f6d:	83 80 cc 00 00 00 08 	addl   $0x8,0xcc(%rax)
	lh = (struct l2cap_hdr *) skb_put(skb, L2CAP_HDR_SIZE);
    2f74:	be 04 00 00 00       	mov    $0x4,%esi
    2f79:	48 89 c7             	mov    %rax,%rdi
	lh->len = cpu_to_le16(hlen - L2CAP_HDR_SIZE);
    2f7c:	41 83 ec 04          	sub    $0x4,%r12d
		bt_cb(skb)->incoming  = 0;
    2f80:	c6 40 29 00          	movb   $0x0,0x29(%rax)
	lh = (struct l2cap_hdr *) skb_put(skb, L2CAP_HDR_SIZE);
    2f84:	e8 00 00 00 00       	callq  2f89 <l2cap_send_srejtail+0x179>
    2f89:	48 89 c1             	mov    %rax,%rcx
	lh->len = cpu_to_le16(hlen - L2CAP_HDR_SIZE);
    2f8c:	66 44 89 20          	mov    %r12w,(%rax)
	lh->cid = cpu_to_le16(chan->dcid);
    2f90:	0f b7 43 1a          	movzwl 0x1a(%rbx),%eax
	__put_control(chan, control, skb_put(skb, __ctrl_size(chan)));
    2f94:	4c 89 ef             	mov    %r13,%rdi
	lh->cid = cpu_to_le16(chan->dcid);
    2f97:	48 89 4d c8          	mov    %rcx,-0x38(%rbp)
    2f9b:	66 89 41 02          	mov    %ax,0x2(%rcx)
		(addr[nr / BITS_PER_LONG])) != 0;
    2f9f:	48 8b 93 90 00 00 00 	mov    0x90(%rbx),%rdx
    2fa6:	48 c1 ea 04          	shr    $0x4,%rdx
    2faa:	83 e2 01             	and    $0x1,%edx
		return put_unaligned_le16(control, p);
}

static inline __u8 __ctrl_size(struct l2cap_chan *chan)
{
	if (test_bit(FLAG_EXT_CTRL, &chan->flags))
    2fad:	48 83 fa 01          	cmp    $0x1,%rdx
    2fb1:	19 f6                	sbb    %esi,%esi
    2fb3:	83 e6 fe             	and    $0xfffffffe,%esi
    2fb6:	83 c6 04             	add    $0x4,%esi
	__put_control(chan, control, skb_put(skb, __ctrl_size(chan)));
    2fb9:	e8 00 00 00 00       	callq  2fbe <l2cap_send_srejtail+0x1ae>
    2fbe:	48 8b 93 90 00 00 00 	mov    0x90(%rbx),%rdx
	if (test_bit(FLAG_EXT_CTRL, &chan->flags))
    2fc5:	48 8b 4d c8          	mov    -0x38(%rbp),%rcx
    2fc9:	83 e2 10             	and    $0x10,%edx
    2fcc:	75 62                	jne    3030 <l2cap_send_srejtail+0x220>
    2fce:	66 44 89 30          	mov    %r14w,(%rax)
	if (chan->fcs == L2CAP_FCS_CRC16) {
    2fd2:	80 7b 6f 01          	cmpb   $0x1,0x6f(%rbx)
    2fd6:	74 60                	je     3038 <l2cap_send_srejtail+0x228>
	skb->priority = HCI_PRIO_MAX;
    2fd8:	41 c7 45 78 07 00 00 	movl   $0x7,0x78(%r13)
    2fdf:	00 
	l2cap_do_send(chan, skb);
    2fe0:	4c 89 ee             	mov    %r13,%rsi
    2fe3:	48 89 df             	mov    %rbx,%rdi
    2fe6:	e8 15 d5 ff ff       	callq  500 <l2cap_do_send>
}
    2feb:	48 83 c4 18          	add    $0x18,%rsp
    2fef:	5b                   	pop    %rbx
    2ff0:	41 5c                	pop    %r12
    2ff2:	41 5d                	pop    %r13
    2ff4:	41 5e                	pop    %r14
    2ff6:	41 5f                	pop    %r15
    2ff8:	5d                   	pop    %rbp
    2ff9:	c3                   	retq   
    2ffa:	66 0f 1f 44 00 00    	nopw   0x0(%rax,%rax,1)
    3000:	48 8b 83 90 00 00 00 	mov    0x90(%rbx),%rax
    3007:	48 c1 e8 04          	shr    $0x4,%rax
    300b:	83 e0 01             	and    $0x1,%eax
		return L2CAP_EXT_CTRL_POLL;
    300e:	48 83 f8 01          	cmp    $0x1,%rax
    3012:	19 c0                	sbb    %eax,%eax
    3014:	25 10 00 fc ff       	and    $0xfffc0010,%eax
    3019:	05 00 00 04 00       	add    $0x40000,%eax
		control |= __set_ctrl_poll(chan);
    301e:	41 09 c6             	or     %eax,%r14d
    3021:	e9 1e ff ff ff       	jmpq   2f44 <l2cap_send_srejtail+0x134>
    3026:	66 2e 0f 1f 84 00 00 	nopw   %cs:0x0(%rax,%rax,1)
    302d:	00 00 00 
	*((__le32 *)p) = cpu_to_le32(val);
    3030:	44 89 30             	mov    %r14d,(%rax)
    3033:	eb 9d                	jmp    2fd2 <l2cap_send_srejtail+0x1c2>
    3035:	0f 1f 00             	nopl   (%rax)
		u16 fcs = crc16(0, (u8 *)lh, count - L2CAP_FCS_SIZE);
    3038:	41 8d 57 fe          	lea    -0x2(%r15),%edx
    303c:	48 89 ce             	mov    %rcx,%rsi
    303f:	31 ff                	xor    %edi,%edi
    3041:	48 63 d2             	movslq %edx,%rdx
    3044:	e8 00 00 00 00       	callq  3049 <l2cap_send_srejtail+0x239>
		put_unaligned_le16(fcs, skb_put(skb, L2CAP_FCS_SIZE));
    3049:	be 02 00 00 00       	mov    $0x2,%esi
		u16 fcs = crc16(0, (u8 *)lh, count - L2CAP_FCS_SIZE);
    304e:	41 89 c4             	mov    %eax,%r12d
		put_unaligned_le16(fcs, skb_put(skb, L2CAP_FCS_SIZE));
    3051:	4c 89 ef             	mov    %r13,%rdi
    3054:	e8 00 00 00 00       	callq  3059 <l2cap_send_srejtail+0x249>
	*((__le16 *)p) = cpu_to_le16(val);
    3059:	66 44 89 20          	mov    %r12w,(%rax)
    305d:	e9 76 ff ff ff       	jmpq   2fd8 <l2cap_send_srejtail+0x1c8>
	BT_DBG("chan %p, control 0x%8.8x", chan, control);
    3062:	44 89 f1             	mov    %r14d,%ecx
    3065:	48 89 da             	mov    %rbx,%rdx
    3068:	48 c7 c6 00 00 00 00 	mov    $0x0,%rsi
    306f:	48 c7 c7 00 00 00 00 	mov    $0x0,%rdi
    3076:	31 c0                	xor    %eax,%eax
    3078:	e8 00 00 00 00       	callq  307d <l2cap_send_srejtail+0x26d>
    307d:	e9 6d fe ff ff       	jmpq   2eef <l2cap_send_srejtail+0xdf>
    3082:	0f 1f 40 00          	nopl   0x0(%rax)
    3086:	66 2e 0f 1f 84 00 00 	nopw   %cs:0x0(%rax,%rax,1)
    308d:	00 00 00 

0000000000003090 <l2cap_send_srejframe>:
{
    3090:	55                   	push   %rbp
    3091:	48 89 e5             	mov    %rsp,%rbp
    3094:	41 57                	push   %r15
    3096:	41 56                	push   %r14
    3098:	41 55                	push   %r13
    309a:	41 54                	push   %r12
    309c:	53                   	push   %rbx
    309d:	48 83 ec 28          	sub    $0x28,%rsp
    30a1:	e8 00 00 00 00       	callq  30a6 <l2cap_send_srejframe+0x16>
	while (tx_seq != chan->expected_tx_seq) {
    30a6:	0f b7 8f 9c 00 00 00 	movzwl 0x9c(%rdi),%ecx
{
    30ad:	48 89 fb             	mov    %rdi,%rbx
    30b0:	41 89 f4             	mov    %esi,%r12d
	while (tx_seq != chan->expected_tx_seq) {
    30b3:	66 39 f1             	cmp    %si,%cx
    30b6:	0f 84 04 03 00 00    	je     33c0 <l2cap_send_srejframe+0x330>
		list_add_tail(&new->list, &chan->srej_l);
    30bc:	48 8d 87 08 03 00 00 	lea    0x308(%rdi),%rax
    30c3:	48 89 45 c8          	mov    %rax,-0x38(%rbp)
    30c7:	e9 b8 00 00 00       	jmpq   3184 <l2cap_send_srejframe+0xf4>
    30cc:	0f 1f 40 00          	nopl   0x0(%rax)
		return (reqseq << L2CAP_EXT_CTRL_REQSEQ_SHIFT) &
    30d0:	41 c1 e6 02          	shl    $0x2,%r14d
    30d4:	45 0f b7 f6          	movzwl %r14w,%r14d
	u16 mask = seq_list->mask;
    30d8:	44 0f b7 83 ec 02 00 	movzwl 0x2ec(%rbx),%r8d
    30df:	00 
	if (seq_list->list[seq & mask] != L2CAP_SEQ_LIST_CLEAR)
    30e0:	89 ce                	mov    %ecx,%esi
    30e2:	48 8b bb f0 02 00 00 	mov    0x2f0(%rbx),%rdi
    30e9:	44 21 c6             	and    %r8d,%esi
    30ec:	0f b7 f6             	movzwl %si,%esi
    30ef:	48 01 f6             	add    %rsi,%rsi
    30f2:	48 8d 14 37          	lea    (%rdi,%rsi,1),%rdx
    30f6:	66 83 3a ff          	cmpw   $0xffff,(%rdx)
    30fa:	0f 84 30 02 00 00    	je     3330 <l2cap_send_srejframe+0x2a0>
	if (chan->state != BT_CONNECTED)
    3100:	80 7b 10 01          	cmpb   $0x1,0x10(%rbx)
	struct l2cap_conn *conn = chan->conn;
    3104:	4c 8b 7b 08          	mov    0x8(%rbx),%r15
	if (chan->state != BT_CONNECTED)
    3108:	0f 84 ba 00 00 00    	je     31c8 <l2cap_send_srejframe+0x138>
	return kmalloc_caches[index];
    310e:	48 8b 3d 00 00 00 00 	mov    0x0(%rip),%rdi        # 3115 <l2cap_send_srejframe+0x85>
			if (!s)
    3115:	48 85 ff             	test   %rdi,%rdi
    3118:	0f 84 02 02 00 00    	je     3320 <l2cap_send_srejframe+0x290>
			return kmem_cache_alloc_trace(s, flags, size);
    311e:	ba 18 00 00 00       	mov    $0x18,%edx
    3123:	be 20 80 00 00       	mov    $0x8020,%esi
    3128:	e8 00 00 00 00       	callq  312d <l2cap_send_srejframe+0x9d>
		if (!new)
    312d:	48 85 c0             	test   %rax,%rax
    3130:	48 89 c7             	mov    %rax,%rdi
    3133:	0f 84 b7 02 00 00    	je     33f0 <l2cap_send_srejframe+0x360>
		new->tx_seq = chan->expected_tx_seq;
    3139:	0f b7 83 9c 00 00 00 	movzwl 0x9c(%rbx),%eax
		list_add_tail(&new->list, &chan->srej_l);
    3140:	48 83 c7 08          	add    $0x8,%rdi
		new->tx_seq = chan->expected_tx_seq;
    3144:	66 89 47 f8          	mov    %ax,-0x8(%rdi)
	return (seq + 1) % (chan->tx_win_max + 1);
    3148:	0f b7 83 9c 00 00 00 	movzwl 0x9c(%rbx),%eax
    314f:	0f b7 4b 72          	movzwl 0x72(%rbx),%ecx
 * Insert a new entry before the specified head.
 * This is useful for implementing queues.
 */
static inline void list_add_tail(struct list_head *new, struct list_head *head)
{
	__list_add(new, head->prev, head);
    3153:	48 8b b3 10 03 00 00 	mov    0x310(%rbx),%rsi
    315a:	83 c0 01             	add    $0x1,%eax
    315d:	83 c1 01             	add    $0x1,%ecx
    3160:	99                   	cltd   
    3161:	f7 f9                	idiv   %ecx
    3163:	66 89 93 9c 00 00 00 	mov    %dx,0x9c(%rbx)
    316a:	48 8b 55 c8          	mov    -0x38(%rbp),%rdx
    316e:	e8 00 00 00 00       	callq  3173 <l2cap_send_srejframe+0xe3>
	while (tx_seq != chan->expected_tx_seq) {
    3173:	0f b7 8b 9c 00 00 00 	movzwl 0x9c(%rbx),%ecx
    317a:	66 44 39 e1          	cmp    %r12w,%cx
    317e:	0f 84 3c 02 00 00    	je     33c0 <l2cap_send_srejframe+0x330>
    3184:	48 8b 83 90 00 00 00 	mov    0x90(%rbx),%rax
    318b:	48 8b 93 90 00 00 00 	mov    0x90(%rbx),%rdx
		control |= __set_reqseq(chan, chan->expected_tx_seq);
    3192:	44 0f b7 f1          	movzwl %cx,%r14d
    3196:	83 e0 10             	and    $0x10,%eax
		return (super << L2CAP_EXT_CTRL_SUPER_SHIFT) &
    3199:	48 83 f8 01          	cmp    $0x1,%rax
    319d:	19 c0                	sbb    %eax,%eax
    319f:	25 0c 00 fd ff       	and    $0xfffd000c,%eax
    31a4:	05 00 00 03 00       	add    $0x30000,%eax
	if (test_bit(FLAG_EXT_CTRL, &chan->flags))
    31a9:	83 e2 10             	and    $0x10,%edx
    31ac:	0f 85 1e ff ff ff    	jne    30d0 <l2cap_send_srejframe+0x40>
		return (reqseq << L2CAP_CTRL_REQSEQ_SHIFT) & L2CAP_CTRL_REQSEQ;
    31b2:	41 c1 e6 08          	shl    $0x8,%r14d
    31b6:	41 81 e6 00 3f 00 00 	and    $0x3f00,%r14d
    31bd:	e9 16 ff ff ff       	jmpq   30d8 <l2cap_send_srejframe+0x48>
    31c2:	66 0f 1f 44 00 00    	nopw   0x0(%rax,%rax,1)
    31c8:	48 8b 93 90 00 00 00 	mov    0x90(%rbx),%rdx
    31cf:	83 e2 10             	and    $0x10,%edx
		hlen = L2CAP_EXT_HDR_SIZE;
    31d2:	48 83 fa 01          	cmp    $0x1,%rdx
    31d6:	45 19 ed             	sbb    %r13d,%r13d
    31d9:	41 83 e5 fe          	and    $0xfffffffe,%r13d
    31dd:	41 83 c5 08          	add    $0x8,%r13d
		hlen += L2CAP_FCS_SIZE;
    31e1:	80 7b 6f 01          	cmpb   $0x1,0x6f(%rbx)
    31e5:	41 8d 55 02          	lea    0x2(%r13),%edx
    31e9:	44 0f 44 ea          	cmove  %edx,%r13d
		control |= __set_reqseq(chan, chan->expected_tx_seq);
    31ed:	41 09 c6             	or     %eax,%r14d
	BT_DBG("chan %p, control 0x%8.8x", chan, control);
    31f0:	f6 05 00 00 00 00 04 	testb  $0x4,0x0(%rip)        # 31f7 <l2cap_send_srejframe+0x167>
    31f7:	0f 85 07 02 00 00    	jne    3404 <l2cap_send_srejframe+0x374>
	count = min_t(unsigned int, conn->mtu, hlen);
    31fd:	45 8b 7f 20          	mov    0x20(%r15),%r15d
    3201:	48 8b 83 90 00 00 00 	mov    0x90(%rbx),%rax
    3208:	45 39 fd             	cmp    %r15d,%r13d
    320b:	45 0f 46 fd          	cmovbe %r13d,%r15d
	control |= __set_sframe(chan);
    320f:	41 83 ce 01          	or     $0x1,%r14d
	count = min_t(unsigned int, conn->mtu, hlen);
    3213:	44 89 7d c4          	mov    %r15d,-0x3c(%rbp)
	asm volatile(LOCK_PREFIX "btr %2,%1\n\t"
    3217:	f0 0f ba b3 88 00 00 	lock btrl $0x7,0x88(%rbx)
    321e:	00 07 
    3220:	19 c0                	sbb    %eax,%eax
	if (test_and_clear_bit(CONN_SEND_FBIT, &chan->conn_state))
    3222:	85 c0                	test   %eax,%eax
    3224:	74 19                	je     323f <l2cap_send_srejframe+0x1af>
		(addr[nr / BITS_PER_LONG])) != 0;
    3226:	48 8b 83 90 00 00 00 	mov    0x90(%rbx),%rax
    322d:	83 e0 10             	and    $0x10,%eax
		return L2CAP_EXT_CTRL_FINAL;
    3230:	48 83 f8 01          	cmp    $0x1,%rax
    3234:	19 c0                	sbb    %eax,%eax
    3236:	83 e0 7e             	and    $0x7e,%eax
    3239:	83 c0 02             	add    $0x2,%eax
		control |= __set_ctrl_final(chan);
    323c:	41 09 c6             	or     %eax,%r14d
	asm volatile(LOCK_PREFIX "btr %2,%1\n\t"
    323f:	f0 0f ba b3 88 00 00 	lock btrl $0x3,0x88(%rbx)
    3246:	00 03 
    3248:	19 c0                	sbb    %eax,%eax
	if (test_and_clear_bit(CONN_SEND_PBIT, &chan->conn_state))
    324a:	85 c0                	test   %eax,%eax
    324c:	74 1d                	je     326b <l2cap_send_srejframe+0x1db>
		(addr[nr / BITS_PER_LONG])) != 0;
    324e:	48 8b 83 90 00 00 00 	mov    0x90(%rbx),%rax
    3255:	83 e0 10             	and    $0x10,%eax
		return L2CAP_EXT_CTRL_POLL;
    3258:	48 83 f8 01          	cmp    $0x1,%rax
    325c:	19 c0                	sbb    %eax,%eax
    325e:	25 10 00 fc ff       	and    $0xfffc0010,%eax
    3263:	05 00 00 04 00       	add    $0x40000,%eax
		control |= __set_ctrl_poll(chan);
    3268:	41 09 c6             	or     %eax,%r14d
	if ((skb = alloc_skb(len + BT_SKB_RESERVE, how))) {
    326b:	8b 45 c4             	mov    -0x3c(%rbp),%eax
	return __alloc_skb(size, priority, 0, NUMA_NO_NODE);
    326e:	31 d2                	xor    %edx,%edx
    3270:	b9 ff ff ff ff       	mov    $0xffffffff,%ecx
    3275:	be 20 00 00 00       	mov    $0x20,%esi
    327a:	8d 78 08             	lea    0x8(%rax),%edi
    327d:	e8 00 00 00 00       	callq  3282 <l2cap_send_srejframe+0x1f2>
    3282:	48 85 c0             	test   %rax,%rax
    3285:	49 89 c7             	mov    %rax,%r15
    3288:	0f 84 80 fe ff ff    	je     310e <l2cap_send_srejframe+0x7e>
	skb->data += len;
    328e:	48 83 80 e0 00 00 00 	addq   $0x8,0xe0(%rax)
    3295:	08 
	skb->tail += len;
    3296:	83 80 cc 00 00 00 08 	addl   $0x8,0xcc(%rax)
	lh = (struct l2cap_hdr *) skb_put(skb, L2CAP_HDR_SIZE);
    329d:	be 04 00 00 00       	mov    $0x4,%esi
    32a2:	48 89 c7             	mov    %rax,%rdi
		bt_cb(skb)->incoming  = 0;
    32a5:	c6 40 29 00          	movb   $0x0,0x29(%rax)
    32a9:	e8 00 00 00 00       	callq  32ae <l2cap_send_srejframe+0x21e>
	lh->len = cpu_to_le16(hlen - L2CAP_HDR_SIZE);
    32ae:	45 8d 45 fc          	lea    -0x4(%r13),%r8d
	lh = (struct l2cap_hdr *) skb_put(skb, L2CAP_HDR_SIZE);
    32b2:	49 89 c1             	mov    %rax,%r9
	__put_control(chan, control, skb_put(skb, __ctrl_size(chan)));
    32b5:	4c 89 ff             	mov    %r15,%rdi
	lh->cid = cpu_to_le16(chan->dcid);
    32b8:	4c 89 4d b8          	mov    %r9,-0x48(%rbp)
	lh->len = cpu_to_le16(hlen - L2CAP_HDR_SIZE);
    32bc:	66 44 89 00          	mov    %r8w,(%rax)
	lh->cid = cpu_to_le16(chan->dcid);
    32c0:	0f b7 43 1a          	movzwl 0x1a(%rbx),%eax
    32c4:	66 41 89 41 02       	mov    %ax,0x2(%r9)
    32c9:	48 8b 93 90 00 00 00 	mov    0x90(%rbx),%rdx
    32d0:	83 e2 10             	and    $0x10,%edx
	if (test_bit(FLAG_EXT_CTRL, &chan->flags))
    32d3:	48 83 fa 01          	cmp    $0x1,%rdx
    32d7:	19 f6                	sbb    %esi,%esi
    32d9:	83 e6 fe             	and    $0xfffffffe,%esi
    32dc:	83 c6 04             	add    $0x4,%esi
	__put_control(chan, control, skb_put(skb, __ctrl_size(chan)));
    32df:	e8 00 00 00 00       	callq  32e4 <l2cap_send_srejframe+0x254>
    32e4:	48 8b 93 90 00 00 00 	mov    0x90(%rbx),%rdx
	if (test_bit(FLAG_EXT_CTRL, &chan->flags))
    32eb:	4c 8b 4d b8          	mov    -0x48(%rbp),%r9
    32ef:	83 e2 10             	and    $0x10,%edx
    32f2:	74 7c                	je     3370 <l2cap_send_srejframe+0x2e0>
	*((__le32 *)p) = cpu_to_le32(val);
    32f4:	44 89 30             	mov    %r14d,(%rax)
	if (chan->fcs == L2CAP_FCS_CRC16) {
    32f7:	80 7b 6f 01          	cmpb   $0x1,0x6f(%rbx)
    32fb:	74 7d                	je     337a <l2cap_send_srejframe+0x2ea>
	l2cap_do_send(chan, skb);
    32fd:	48 89 df             	mov    %rbx,%rdi
	skb->priority = HCI_PRIO_MAX;
    3300:	41 c7 47 78 07 00 00 	movl   $0x7,0x78(%r15)
    3307:	00 
	l2cap_do_send(chan, skb);
    3308:	4c 89 fe             	mov    %r15,%rsi
    330b:	e8 f0 d1 ff ff       	callq  500 <l2cap_do_send>
	return kmalloc_caches[index];
    3310:	48 8b 3d 00 00 00 00 	mov    0x0(%rip),%rdi        # 3317 <l2cap_send_srejframe+0x287>
			if (!s)
    3317:	48 85 ff             	test   %rdi,%rdi
    331a:	0f 85 fe fd ff ff    	jne    311e <l2cap_send_srejframe+0x8e>
				return ZERO_SIZE_PTR;
    3320:	bf 10 00 00 00       	mov    $0x10,%edi
    3325:	e9 0f fe ff ff       	jmpq   3139 <l2cap_send_srejframe+0xa9>
    332a:	66 0f 1f 44 00 00    	nopw   0x0(%rax,%rax,1)
	if (seq_list->tail == L2CAP_SEQ_LIST_CLEAR)
    3330:	44 0f b7 8b ea 02 00 	movzwl 0x2ea(%rbx),%r9d
    3337:	00 
    3338:	66 41 83 f9 ff       	cmp    $0xffff,%r9w
    333d:	74 71                	je     33b0 <l2cap_send_srejframe+0x320>
		seq_list->list[seq_list->tail & mask] = seq;
    333f:	45 21 c8             	and    %r9d,%r8d
    3342:	48 89 f2             	mov    %rsi,%rdx
    3345:	45 0f b7 c0          	movzwl %r8w,%r8d
    3349:	66 42 89 0c 47       	mov    %cx,(%rdi,%r8,2)
    334e:	48 03 93 f0 02 00 00 	add    0x2f0(%rbx),%rdx
	seq_list->tail = seq;
    3355:	66 89 8b ea 02 00 00 	mov    %cx,0x2ea(%rbx)
	seq_list->list[seq & mask] = L2CAP_SEQ_LIST_TAIL;
    335c:	b9 00 80 ff ff       	mov    $0xffff8000,%ecx
    3361:	66 89 0a             	mov    %cx,(%rdx)
    3364:	e9 97 fd ff ff       	jmpq   3100 <l2cap_send_srejframe+0x70>
    3369:	0f 1f 80 00 00 00 00 	nopl   0x0(%rax)
    3370:	66 44 89 30          	mov    %r14w,(%rax)
	if (chan->fcs == L2CAP_FCS_CRC16) {
    3374:	80 7b 6f 01          	cmpb   $0x1,0x6f(%rbx)
    3378:	75 83                	jne    32fd <l2cap_send_srejframe+0x26d>
		u16 fcs = crc16(0, (u8 *)lh, count - L2CAP_FCS_SIZE);
    337a:	8b 55 c4             	mov    -0x3c(%rbp),%edx
    337d:	4c 89 ce             	mov    %r9,%rsi
    3380:	31 ff                	xor    %edi,%edi
    3382:	83 ea 02             	sub    $0x2,%edx
    3385:	48 63 d2             	movslq %edx,%rdx
    3388:	e8 00 00 00 00       	callq  338d <l2cap_send_srejframe+0x2fd>
		put_unaligned_le16(fcs, skb_put(skb, L2CAP_FCS_SIZE));
    338d:	be 02 00 00 00       	mov    $0x2,%esi
		u16 fcs = crc16(0, (u8 *)lh, count - L2CAP_FCS_SIZE);
    3392:	41 89 c6             	mov    %eax,%r14d
		put_unaligned_le16(fcs, skb_put(skb, L2CAP_FCS_SIZE));
    3395:	4c 89 ff             	mov    %r15,%rdi
    3398:	e8 00 00 00 00       	callq  339d <l2cap_send_srejframe+0x30d>
	*((__le16 *)p) = cpu_to_le16(val);
    339d:	66 44 89 30          	mov    %r14w,(%rax)
    33a1:	e9 57 ff ff ff       	jmpq   32fd <l2cap_send_srejframe+0x26d>
    33a6:	66 2e 0f 1f 84 00 00 	nopw   %cs:0x0(%rax,%rax,1)
    33ad:	00 00 00 
		seq_list->head = seq;
    33b0:	66 89 8b e8 02 00 00 	mov    %cx,0x2e8(%rbx)
    33b7:	eb 9c                	jmp    3355 <l2cap_send_srejframe+0x2c5>
    33b9:	0f 1f 80 00 00 00 00 	nopl   0x0(%rax)
	return (seq + 1) % (chan->tx_win_max + 1);
    33c0:	0f b7 73 72          	movzwl 0x72(%rbx),%esi
    33c4:	0f b7 c1             	movzwl %cx,%eax
    33c7:	83 c0 01             	add    $0x1,%eax
    33ca:	99                   	cltd   
    33cb:	83 c6 01             	add    $0x1,%esi
    33ce:	f7 fe                	idiv   %esi
	return 0;
    33d0:	31 c0                	xor    %eax,%eax
    33d2:	66 89 93 9c 00 00 00 	mov    %dx,0x9c(%rbx)
}
    33d9:	48 83 c4 28          	add    $0x28,%rsp
    33dd:	5b                   	pop    %rbx
    33de:	41 5c                	pop    %r12
    33e0:	41 5d                	pop    %r13
    33e2:	41 5e                	pop    %r14
    33e4:	41 5f                	pop    %r15
    33e6:	5d                   	pop    %rbp
    33e7:	c3                   	retq   
    33e8:	0f 1f 84 00 00 00 00 	nopl   0x0(%rax,%rax,1)
    33ef:	00 
    33f0:	48 83 c4 28          	add    $0x28,%rsp
			return -ENOMEM;
    33f4:	b8 f4 ff ff ff       	mov    $0xfffffff4,%eax
}
    33f9:	5b                   	pop    %rbx
    33fa:	41 5c                	pop    %r12
    33fc:	41 5d                	pop    %r13
    33fe:	41 5e                	pop    %r14
    3400:	41 5f                	pop    %r15
    3402:	5d                   	pop    %rbp
    3403:	c3                   	retq   
	BT_DBG("chan %p, control 0x%8.8x", chan, control);
    3404:	44 89 f1             	mov    %r14d,%ecx
    3407:	48 89 da             	mov    %rbx,%rdx
    340a:	48 c7 c6 00 00 00 00 	mov    $0x0,%rsi
    3411:	48 c7 c7 00 00 00 00 	mov    $0x0,%rdi
    3418:	31 c0                	xor    %eax,%eax
    341a:	e8 00 00 00 00       	callq  341f <l2cap_send_srejframe+0x38f>
    341f:	e9 d9 fd ff ff       	jmpq   31fd <l2cap_send_srejframe+0x16d>
    3424:	66 90                	xchg   %ax,%ax
    3426:	66 2e 0f 1f 84 00 00 	nopw   %cs:0x0(%rax,%rax,1)
    342d:	00 00 00 

0000000000003430 <l2cap_retrans_timeout>:
{
    3430:	55                   	push   %rbp
    3431:	48 89 e5             	mov    %rsp,%rbp
    3434:	41 57                	push   %r15
    3436:	41 56                	push   %r14
    3438:	41 55                	push   %r13
    343a:	41 54                	push   %r12
    343c:	53                   	push   %rbx
    343d:	48 83 ec 28          	sub    $0x28,%rsp
    3441:	e8 00 00 00 00       	callq  3446 <l2cap_retrans_timeout+0x16>
	BT_DBG("chan %p", chan);
    3446:	f6 05 00 00 00 00 04 	testb  $0x4,0x0(%rip)        # 344d <l2cap_retrans_timeout+0x1d>
{
    344d:	49 89 fc             	mov    %rdi,%r12
	struct l2cap_chan *chan = container_of(work, struct l2cap_chan,
    3450:	4c 8d af a0 fe ff ff 	lea    -0x160(%rdi),%r13
	BT_DBG("chan %p", chan);
    3457:	0f 85 44 03 00 00    	jne    37a1 <l2cap_retrans_timeout+0x371>
	mutex_lock(&chan->lock);
    345d:	49 8d 84 24 e8 01 00 	lea    0x1e8(%r12),%rax
    3464:	00 
	__set_monitor_timer(chan);
    3465:	4d 8d 7c 24 70       	lea    0x70(%r12),%r15
    346a:	48 89 c7             	mov    %rax,%rdi
    346d:	48 89 45 c8          	mov    %rax,-0x38(%rbp)
    3471:	e8 00 00 00 00       	callq  3476 <l2cap_retrans_timeout+0x46>
	chan->retry_count = 1;
    3476:	41 c6 84 24 4a ff ff 	movb   $0x1,-0xb6(%r12)
    347d:	ff 01 
	__set_monitor_timer(chan);
    347f:	bf e0 2e 00 00       	mov    $0x2ee0,%edi
    3484:	e8 00 00 00 00       	callq  3489 <l2cap_retrans_timeout+0x59>
	BT_DBG("chan %p state %s timeout %ld", chan,
    3489:	f6 05 00 00 00 00 04 	testb  $0x4,0x0(%rip)        # 3490 <l2cap_retrans_timeout+0x60>
    3490:	49 89 c6             	mov    %rax,%r14
    3493:	0f 85 c8 02 00 00    	jne    3761 <l2cap_retrans_timeout+0x331>
	ret = del_timer_sync(&work->timer);
    3499:	49 8d bc 24 90 00 00 	lea    0x90(%r12),%rdi
    34a0:	00 
    34a1:	e8 00 00 00 00       	callq  34a6 <l2cap_retrans_timeout+0x76>
	if (ret)
    34a6:	85 c0                	test   %eax,%eax
    34a8:	0f 84 d2 00 00 00    	je     3580 <l2cap_retrans_timeout+0x150>
		asm volatile(LOCK_PREFIX "andb %1,%0"
    34ae:	f0 41 80 64 24 70 fe 	lock andb $0xfe,0x70(%r12)
    34b5:	49 8d 5d 14          	lea    0x14(%r13),%rbx
	schedule_delayed_work(work, timeout);
    34b9:	4c 89 f6             	mov    %r14,%rsi
    34bc:	4c 89 ff             	mov    %r15,%rdi
    34bf:	e8 00 00 00 00       	callq  34c4 <l2cap_retrans_timeout+0x94>
		asm volatile(LOCK_PREFIX "orb %1,%0"
    34c4:	f0 41 80 8c 24 28 ff 	lock orb $0x2,-0xd8(%r12)
    34cb:	ff ff 02 
		(addr[nr / BITS_PER_LONG])) != 0;
    34ce:	49 8b 84 24 28 ff ff 	mov    -0xd8(%r12),%rax
    34d5:	ff 
	if (test_bit(CONN_LOCAL_BUSY, &chan->conn_state)) {
    34d6:	a8 20                	test   $0x20,%al
    34d8:	49 8b 84 24 30 ff ff 	mov    -0xd0(%r12),%rax
    34df:	ff 
    34e0:	0f 84 92 00 00 00    	je     3578 <l2cap_retrans_timeout+0x148>
    34e6:	48 c1 e8 04          	shr    $0x4,%rax
    34ea:	83 e0 01             	and    $0x1,%eax
	if (test_bit(FLAG_EXT_CTRL, &chan->flags))
    34ed:	48 83 f8 01          	cmp    $0x1,%rax
    34f1:	45 19 f6             	sbb    %r14d,%r14d
    34f4:	41 81 e6 08 00 fe ff 	and    $0xfffe0008,%r14d
    34fb:	41 81 c6 10 00 02 00 	add    $0x20010,%r14d
		asm volatile(LOCK_PREFIX "orb %1,%0"
    3502:	f0 41 80 8c 24 29 ff 	lock orb $0x1,-0xd7(%r12)
    3509:	ff ff 01 
	control |= __set_reqseq(chan, chan->buffer_seq);
    350c:	41 0f b7 94 24 3e ff 	movzwl -0xc2(%r12),%edx
    3513:	ff ff 
		(addr[nr / BITS_PER_LONG])) != 0;
    3515:	49 8b 8c 24 30 ff ff 	mov    -0xd0(%r12),%rcx
    351c:	ff 
		return (reqseq << L2CAP_CTRL_REQSEQ_SHIFT) & L2CAP_CTRL_REQSEQ;
    351d:	89 d0                	mov    %edx,%eax
    351f:	c1 e0 08             	shl    $0x8,%eax
    3522:	25 00 3f 00 00       	and    $0x3f00,%eax
	if (test_bit(FLAG_EXT_CTRL, &chan->flags))
    3527:	83 e1 10             	and    $0x10,%ecx
    352a:	74 0a                	je     3536 <l2cap_retrans_timeout+0x106>
		return (reqseq << L2CAP_EXT_CTRL_REQSEQ_SHIFT) &
    352c:	8d 04 95 00 00 00 00 	lea    0x0(,%rdx,4),%eax
    3533:	0f b7 c0             	movzwl %ax,%eax
	if (chan->state != BT_CONNECTED)
    3536:	41 80 bc 24 b0 fe ff 	cmpb   $0x1,-0x150(%r12)
    353d:	ff 01 
	struct l2cap_conn *conn = chan->conn;
    353f:	4d 8b bc 24 a8 fe ff 	mov    -0x158(%r12),%r15
    3546:	ff 
	if (chan->state != BT_CONNECTED)
    3547:	74 4f                	je     3598 <l2cap_retrans_timeout+0x168>
	mutex_unlock(&chan->lock);
    3549:	48 8b 7d c8          	mov    -0x38(%rbp),%rdi
    354d:	e8 00 00 00 00       	callq  3552 <l2cap_retrans_timeout+0x122>
    3552:	f0 ff 0b             	lock decl (%rbx)
    3555:	0f 94 c0             	sete   %al
	if (atomic_dec_and_test(&c->refcnt))
    3558:	84 c0                	test   %al,%al
    355a:	74 08                	je     3564 <l2cap_retrans_timeout+0x134>
		kfree(c);
    355c:	4c 89 ef             	mov    %r13,%rdi
    355f:	e8 00 00 00 00       	callq  3564 <l2cap_retrans_timeout+0x134>
}
    3564:	48 83 c4 28          	add    $0x28,%rsp
    3568:	5b                   	pop    %rbx
    3569:	41 5c                	pop    %r12
    356b:	41 5d                	pop    %r13
    356d:	41 5e                	pop    %r14
    356f:	41 5f                	pop    %r15
    3571:	5d                   	pop    %rbp
    3572:	c3                   	retq   
    3573:	0f 1f 44 00 00       	nopl   0x0(%rax,%rax,1)
		control |= __set_ctrl_super(chan, L2CAP_SUPER_RR);
    3578:	41 be 10 00 00 00    	mov    $0x10,%r14d
    357e:	eb 8c                	jmp    350c <l2cap_retrans_timeout+0xdc>
	atomic_inc(&c->refcnt);
    3580:	49 8d 5d 14          	lea    0x14(%r13),%rbx
	asm volatile(LOCK_PREFIX "incl %0"
    3584:	f0 41 ff 84 24 b4 fe 	lock incl -0x14c(%r12)
    358b:	ff ff 
    358d:	e9 27 ff ff ff       	jmpq   34b9 <l2cap_retrans_timeout+0x89>
    3592:	66 0f 1f 44 00 00    	nopw   0x0(%rax,%rax,1)
    3598:	49 8b 94 24 30 ff ff 	mov    -0xd0(%r12),%rdx
    359f:	ff 
    35a0:	48 c1 ea 04          	shr    $0x4,%rdx
    35a4:	83 e2 01             	and    $0x1,%edx
		hlen = L2CAP_EXT_HDR_SIZE;
    35a7:	48 83 fa 01          	cmp    $0x1,%rdx
    35ab:	45 19 c0             	sbb    %r8d,%r8d
    35ae:	41 83 e0 fe          	and    $0xfffffffe,%r8d
    35b2:	41 83 c0 08          	add    $0x8,%r8d
		hlen += L2CAP_FCS_SIZE;
    35b6:	41 80 bc 24 0f ff ff 	cmpb   $0x1,-0xf1(%r12)
    35bd:	ff 01 
    35bf:	41 8d 50 02          	lea    0x2(%r8),%edx
    35c3:	44 0f 44 c2          	cmove  %edx,%r8d
	control |= __set_reqseq(chan, chan->buffer_seq);
    35c7:	41 09 c6             	or     %eax,%r14d
	BT_DBG("chan %p, control 0x%8.8x", chan, control);
    35ca:	f6 05 00 00 00 00 04 	testb  $0x4,0x0(%rip)        # 35d1 <l2cap_retrans_timeout+0x1a1>
    35d1:	0f 85 e7 01 00 00    	jne    37be <l2cap_retrans_timeout+0x38e>
	count = min_t(unsigned int, conn->mtu, hlen);
    35d7:	45 8b 7f 20          	mov    0x20(%r15),%r15d
    35db:	49 8b 84 24 30 ff ff 	mov    -0xd0(%r12),%rax
    35e2:	ff 
    35e3:	45 39 f8             	cmp    %r15d,%r8d
    35e6:	45 0f 46 f8          	cmovbe %r8d,%r15d
	control |= __set_sframe(chan);
    35ea:	41 83 ce 01          	or     $0x1,%r14d
	count = min_t(unsigned int, conn->mtu, hlen);
    35ee:	44 89 7d c4          	mov    %r15d,-0x3c(%rbp)
	asm volatile(LOCK_PREFIX "btr %2,%1\n\t"
    35f2:	f0 41 0f ba b4 24 28 	lock btrl $0x7,-0xd8(%r12)
    35f9:	ff ff ff 07 
    35fd:	19 c0                	sbb    %eax,%eax
	if (test_and_clear_bit(CONN_SEND_FBIT, &chan->conn_state))
    35ff:	85 c0                	test   %eax,%eax
    3601:	74 1e                	je     3621 <l2cap_retrans_timeout+0x1f1>
		(addr[nr / BITS_PER_LONG])) != 0;
    3603:	49 8b 84 24 30 ff ff 	mov    -0xd0(%r12),%rax
    360a:	ff 
    360b:	48 c1 e8 04          	shr    $0x4,%rax
    360f:	83 e0 01             	and    $0x1,%eax
		return L2CAP_EXT_CTRL_FINAL;
    3612:	48 83 f8 01          	cmp    $0x1,%rax
    3616:	19 c0                	sbb    %eax,%eax
    3618:	83 e0 7e             	and    $0x7e,%eax
    361b:	83 c0 02             	add    $0x2,%eax
		control |= __set_ctrl_final(chan);
    361e:	41 09 c6             	or     %eax,%r14d
	asm volatile(LOCK_PREFIX "btr %2,%1\n\t"
    3621:	f0 41 0f ba b4 24 28 	lock btrl $0x3,-0xd8(%r12)
    3628:	ff ff ff 03 
    362c:	19 c0                	sbb    %eax,%eax
	if (test_and_clear_bit(CONN_SEND_PBIT, &chan->conn_state))
    362e:	85 c0                	test   %eax,%eax
    3630:	0f 85 ca 00 00 00    	jne    3700 <l2cap_retrans_timeout+0x2d0>
	if ((skb = alloc_skb(len + BT_SKB_RESERVE, how))) {
    3636:	8b 45 c4             	mov    -0x3c(%rbp),%eax
	return __alloc_skb(size, priority, 0, NUMA_NO_NODE);
    3639:	31 d2                	xor    %edx,%edx
    363b:	b9 ff ff ff ff       	mov    $0xffffffff,%ecx
    3640:	be 20 00 00 00       	mov    $0x20,%esi
    3645:	44 89 45 b8          	mov    %r8d,-0x48(%rbp)
    3649:	8d 78 08             	lea    0x8(%rax),%edi
    364c:	e8 00 00 00 00       	callq  3651 <l2cap_retrans_timeout+0x221>
    3651:	48 85 c0             	test   %rax,%rax
    3654:	49 89 c7             	mov    %rax,%r15
    3657:	0f 84 ec fe ff ff    	je     3549 <l2cap_retrans_timeout+0x119>
	skb->data += len;
    365d:	48 83 80 e0 00 00 00 	addq   $0x8,0xe0(%rax)
    3664:	08 
	skb->tail += len;
    3665:	83 80 cc 00 00 00 08 	addl   $0x8,0xcc(%rax)
	lh = (struct l2cap_hdr *) skb_put(skb, L2CAP_HDR_SIZE);
    366c:	be 04 00 00 00       	mov    $0x4,%esi
    3671:	48 89 c7             	mov    %rax,%rdi
		bt_cb(skb)->incoming  = 0;
    3674:	c6 40 29 00          	movb   $0x0,0x29(%rax)
    3678:	e8 00 00 00 00       	callq  367d <l2cap_retrans_timeout+0x24d>
	lh->len = cpu_to_le16(hlen - L2CAP_HDR_SIZE);
    367d:	44 8b 45 b8          	mov    -0x48(%rbp),%r8d
	lh = (struct l2cap_hdr *) skb_put(skb, L2CAP_HDR_SIZE);
    3681:	49 89 c2             	mov    %rax,%r10
	__put_control(chan, control, skb_put(skb, __ctrl_size(chan)));
    3684:	4c 89 ff             	mov    %r15,%rdi
	lh->cid = cpu_to_le16(chan->dcid);
    3687:	4c 89 55 b8          	mov    %r10,-0x48(%rbp)
	lh->len = cpu_to_le16(hlen - L2CAP_HDR_SIZE);
    368b:	41 83 e8 04          	sub    $0x4,%r8d
    368f:	66 44 89 00          	mov    %r8w,(%rax)
	lh->cid = cpu_to_le16(chan->dcid);
    3693:	41 0f b7 84 24 ba fe 	movzwl -0x146(%r12),%eax
    369a:	ff ff 
    369c:	66 41 89 42 02       	mov    %ax,0x2(%r10)
		(addr[nr / BITS_PER_LONG])) != 0;
    36a1:	49 8b 84 24 30 ff ff 	mov    -0xd0(%r12),%rax
    36a8:	ff 
    36a9:	48 c1 e8 04          	shr    $0x4,%rax
    36ad:	83 e0 01             	and    $0x1,%eax
	if (test_bit(FLAG_EXT_CTRL, &chan->flags))
    36b0:	48 83 f8 01          	cmp    $0x1,%rax
    36b4:	19 f6                	sbb    %esi,%esi
    36b6:	83 e6 fe             	and    $0xfffffffe,%esi
    36b9:	83 c6 04             	add    $0x4,%esi
	__put_control(chan, control, skb_put(skb, __ctrl_size(chan)));
    36bc:	e8 00 00 00 00       	callq  36c1 <l2cap_retrans_timeout+0x291>
    36c1:	49 8b 94 24 30 ff ff 	mov    -0xd0(%r12),%rdx
    36c8:	ff 
	if (test_bit(FLAG_EXT_CTRL, &chan->flags))
    36c9:	4c 8b 55 b8          	mov    -0x48(%rbp),%r10
    36cd:	83 e2 10             	and    $0x10,%edx
    36d0:	75 5e                	jne    3730 <l2cap_retrans_timeout+0x300>
    36d2:	66 44 89 30          	mov    %r14w,(%rax)
	if (chan->fcs == L2CAP_FCS_CRC16) {
    36d6:	41 80 bc 24 0f ff ff 	cmpb   $0x1,-0xf1(%r12)
    36dd:	ff 01 
    36df:	74 57                	je     3738 <l2cap_retrans_timeout+0x308>
	skb->priority = HCI_PRIO_MAX;
    36e1:	41 c7 47 78 07 00 00 	movl   $0x7,0x78(%r15)
    36e8:	00 
	l2cap_do_send(chan, skb);
    36e9:	4c 89 fe             	mov    %r15,%rsi
    36ec:	4c 89 ef             	mov    %r13,%rdi
    36ef:	e8 0c ce ff ff       	callq  500 <l2cap_do_send>
    36f4:	e9 50 fe ff ff       	jmpq   3549 <l2cap_retrans_timeout+0x119>
    36f9:	0f 1f 80 00 00 00 00 	nopl   0x0(%rax)
    3700:	49 8b 84 24 30 ff ff 	mov    -0xd0(%r12),%rax
    3707:	ff 
    3708:	48 c1 e8 04          	shr    $0x4,%rax
    370c:	83 e0 01             	and    $0x1,%eax
		return L2CAP_EXT_CTRL_POLL;
    370f:	48 83 f8 01          	cmp    $0x1,%rax
    3713:	19 c0                	sbb    %eax,%eax
    3715:	25 10 00 fc ff       	and    $0xfffc0010,%eax
    371a:	05 00 00 04 00       	add    $0x40000,%eax
		control |= __set_ctrl_poll(chan);
    371f:	41 09 c6             	or     %eax,%r14d
    3722:	e9 0f ff ff ff       	jmpq   3636 <l2cap_retrans_timeout+0x206>
    3727:	66 0f 1f 84 00 00 00 	nopw   0x0(%rax,%rax,1)
    372e:	00 00 
	*((__le32 *)p) = cpu_to_le32(val);
    3730:	44 89 30             	mov    %r14d,(%rax)
    3733:	eb a1                	jmp    36d6 <l2cap_retrans_timeout+0x2a6>
    3735:	0f 1f 00             	nopl   (%rax)
		u16 fcs = crc16(0, (u8 *)lh, count - L2CAP_FCS_SIZE);
    3738:	8b 55 c4             	mov    -0x3c(%rbp),%edx
    373b:	4c 89 d6             	mov    %r10,%rsi
    373e:	31 ff                	xor    %edi,%edi
    3740:	83 ea 02             	sub    $0x2,%edx
    3743:	48 63 d2             	movslq %edx,%rdx
    3746:	e8 00 00 00 00       	callq  374b <l2cap_retrans_timeout+0x31b>
		put_unaligned_le16(fcs, skb_put(skb, L2CAP_FCS_SIZE));
    374b:	be 02 00 00 00       	mov    $0x2,%esi
		u16 fcs = crc16(0, (u8 *)lh, count - L2CAP_FCS_SIZE);
    3750:	41 89 c6             	mov    %eax,%r14d
		put_unaligned_le16(fcs, skb_put(skb, L2CAP_FCS_SIZE));
    3753:	4c 89 ff             	mov    %r15,%rdi
    3756:	e8 00 00 00 00       	callq  375b <l2cap_retrans_timeout+0x32b>
	*((__le16 *)p) = cpu_to_le16(val);
    375b:	66 44 89 30          	mov    %r14w,(%rax)
    375f:	eb 80                	jmp    36e1 <l2cap_retrans_timeout+0x2b1>
	switch (state) {
    3761:	41 0f b6 84 24 b0 fe 	movzbl -0x150(%r12),%eax
    3768:	ff ff 
    376a:	48 c7 c1 00 00 00 00 	mov    $0x0,%rcx
    3771:	83 e8 01             	sub    $0x1,%eax
    3774:	83 f8 08             	cmp    $0x8,%eax
    3777:	77 08                	ja     3781 <l2cap_retrans_timeout+0x351>
    3779:	48 8b 0c c5 00 00 00 	mov    0x0(,%rax,8),%rcx
    3780:	00 
	BT_DBG("chan %p state %s timeout %ld", chan,
    3781:	4d 89 f0             	mov    %r14,%r8
    3784:	4c 89 ea             	mov    %r13,%rdx
    3787:	48 c7 c6 00 00 00 00 	mov    $0x0,%rsi
    378e:	48 c7 c7 00 00 00 00 	mov    $0x0,%rdi
    3795:	31 c0                	xor    %eax,%eax
    3797:	e8 00 00 00 00       	callq  379c <l2cap_retrans_timeout+0x36c>
    379c:	e9 f8 fc ff ff       	jmpq   3499 <l2cap_retrans_timeout+0x69>
	BT_DBG("chan %p", chan);
    37a1:	4c 89 ea             	mov    %r13,%rdx
    37a4:	48 c7 c6 00 00 00 00 	mov    $0x0,%rsi
    37ab:	48 c7 c7 00 00 00 00 	mov    $0x0,%rdi
    37b2:	31 c0                	xor    %eax,%eax
    37b4:	e8 00 00 00 00       	callq  37b9 <l2cap_retrans_timeout+0x389>
    37b9:	e9 9f fc ff ff       	jmpq   345d <l2cap_retrans_timeout+0x2d>
	BT_DBG("chan %p, control 0x%8.8x", chan, control);
    37be:	44 89 f1             	mov    %r14d,%ecx
    37c1:	4c 89 ea             	mov    %r13,%rdx
    37c4:	48 c7 c6 00 00 00 00 	mov    $0x0,%rsi
    37cb:	48 c7 c7 00 00 00 00 	mov    $0x0,%rdi
    37d2:	31 c0                	xor    %eax,%eax
    37d4:	44 89 45 c4          	mov    %r8d,-0x3c(%rbp)
    37d8:	e8 00 00 00 00       	callq  37dd <l2cap_retrans_timeout+0x3ad>
    37dd:	44 8b 45 c4          	mov    -0x3c(%rbp),%r8d
    37e1:	e9 f1 fd ff ff       	jmpq   35d7 <l2cap_retrans_timeout+0x1a7>
    37e6:	66 2e 0f 1f 84 00 00 	nopw   %cs:0x0(%rax,%rax,1)
    37ed:	00 00 00 

00000000000037f0 <l2cap_monitor_timeout>:
{
    37f0:	55                   	push   %rbp
    37f1:	48 89 e5             	mov    %rsp,%rbp
    37f4:	41 57                	push   %r15
    37f6:	41 56                	push   %r14
    37f8:	41 55                	push   %r13
    37fa:	41 54                	push   %r12
    37fc:	53                   	push   %rbx
    37fd:	48 83 ec 28          	sub    $0x28,%rsp
    3801:	e8 00 00 00 00       	callq  3806 <l2cap_monitor_timeout+0x16>
	BT_DBG("chan %p", chan);
    3806:	f6 05 00 00 00 00 04 	testb  $0x4,0x0(%rip)        # 380d <l2cap_monitor_timeout+0x1d>
{
    380d:	49 89 fd             	mov    %rdi,%r13
	struct l2cap_chan *chan = container_of(work, struct l2cap_chan,
    3810:	4c 8d a7 30 fe ff ff 	lea    -0x1d0(%rdi),%r12
	BT_DBG("chan %p", chan);
    3817:	0f 85 47 03 00 00    	jne    3b64 <l2cap_monitor_timeout+0x374>
	mutex_lock(&chan->lock);
    381d:	49 8d 9d 78 01 00 00 	lea    0x178(%r13),%rbx
    3824:	48 89 df             	mov    %rbx,%rdi
    3827:	e8 00 00 00 00       	callq  382c <l2cap_monitor_timeout+0x3c>
	if (chan->retry_count >= chan->remote_max_tx) {
    382c:	41 0f b6 85 da fe ff 	movzbl -0x126(%r13),%eax
    3833:	ff 
    3834:	41 3a 85 fa fe ff ff 	cmp    -0x106(%r13),%al
    383b:	0f 83 0f 01 00 00    	jae    3950 <l2cap_monitor_timeout+0x160>
	chan->retry_count++;
    3841:	83 c0 01             	add    $0x1,%eax
	__set_monitor_timer(chan);
    3844:	bf e0 2e 00 00       	mov    $0x2ee0,%edi
	chan->retry_count++;
    3849:	41 88 85 da fe ff ff 	mov    %al,-0x126(%r13)
	__set_monitor_timer(chan);
    3850:	e8 00 00 00 00       	callq  3855 <l2cap_monitor_timeout+0x65>
	BT_DBG("chan %p state %s timeout %ld", chan,
    3855:	f6 05 00 00 00 00 04 	testb  $0x4,0x0(%rip)        # 385c <l2cap_monitor_timeout+0x6c>
    385c:	49 89 c6             	mov    %rax,%r14
    385f:	0f 85 1c 03 00 00    	jne    3b81 <l2cap_monitor_timeout+0x391>
	ret = del_timer_sync(&work->timer);
    3865:	49 8d 7d 20          	lea    0x20(%r13),%rdi
    3869:	e8 00 00 00 00       	callq  386e <l2cap_monitor_timeout+0x7e>
	if (ret)
    386e:	85 c0                	test   %eax,%eax
    3870:	0f 84 ba 00 00 00    	je     3930 <l2cap_monitor_timeout+0x140>
		asm volatile(LOCK_PREFIX "andb %1,%0"
    3876:	f0 41 80 65 00 fe    	lock andb $0xfe,0x0(%r13)
    387c:	49 8d 44 24 14       	lea    0x14(%r12),%rax
    3881:	48 89 45 c8          	mov    %rax,-0x38(%rbp)
	schedule_delayed_work(work, timeout);
    3885:	4c 89 f6             	mov    %r14,%rsi
    3888:	4c 89 ef             	mov    %r13,%rdi
    388b:	e8 00 00 00 00       	callq  3890 <l2cap_monitor_timeout+0xa0>
		(addr[nr / BITS_PER_LONG])) != 0;
    3890:	49 8b 85 b8 fe ff ff 	mov    -0x148(%r13),%rax
	if (test_bit(CONN_LOCAL_BUSY, &chan->conn_state)) {
    3897:	a8 20                	test   $0x20,%al
    3899:	49 8b 85 c0 fe ff ff 	mov    -0x140(%r13),%rax
    38a0:	0f 84 f2 00 00 00    	je     3998 <l2cap_monitor_timeout+0x1a8>
    38a6:	48 c1 e8 04          	shr    $0x4,%rax
    38aa:	83 e0 01             	and    $0x1,%eax
	if (test_bit(FLAG_EXT_CTRL, &chan->flags))
    38ad:	48 83 f8 01          	cmp    $0x1,%rax
    38b1:	45 19 f6             	sbb    %r14d,%r14d
    38b4:	41 81 e6 08 00 fe ff 	and    $0xfffe0008,%r14d
    38bb:	41 81 c6 10 00 02 00 	add    $0x20010,%r14d
		asm volatile(LOCK_PREFIX "orb %1,%0"
    38c2:	f0 41 80 8d b9 fe ff 	lock orb $0x1,-0x147(%r13)
    38c9:	ff 01 
	control |= __set_reqseq(chan, chan->buffer_seq);
    38cb:	41 0f b7 95 ce fe ff 	movzwl -0x132(%r13),%edx
    38d2:	ff 
		(addr[nr / BITS_PER_LONG])) != 0;
    38d3:	49 8b 8d c0 fe ff ff 	mov    -0x140(%r13),%rcx
		return (reqseq << L2CAP_CTRL_REQSEQ_SHIFT) & L2CAP_CTRL_REQSEQ;
    38da:	89 d0                	mov    %edx,%eax
    38dc:	c1 e0 08             	shl    $0x8,%eax
    38df:	25 00 3f 00 00       	and    $0x3f00,%eax
	if (test_bit(FLAG_EXT_CTRL, &chan->flags))
    38e4:	83 e1 10             	and    $0x10,%ecx
    38e7:	74 0a                	je     38f3 <l2cap_monitor_timeout+0x103>
		return (reqseq << L2CAP_EXT_CTRL_REQSEQ_SHIFT) &
    38e9:	8d 04 95 00 00 00 00 	lea    0x0(,%rdx,4),%eax
    38f0:	0f b7 c0             	movzwl %ax,%eax
	if (chan->state != BT_CONNECTED)
    38f3:	41 80 bd 40 fe ff ff 	cmpb   $0x1,-0x1c0(%r13)
    38fa:	01 
	struct l2cap_conn *conn = chan->conn;
    38fb:	4d 8b bd 38 fe ff ff 	mov    -0x1c8(%r13),%r15
	if (chan->state != BT_CONNECTED)
    3902:	0f 84 a0 00 00 00    	je     39a8 <l2cap_monitor_timeout+0x1b8>
	mutex_unlock(&chan->lock);
    3908:	48 89 df             	mov    %rbx,%rdi
    390b:	e8 00 00 00 00       	callq  3910 <l2cap_monitor_timeout+0x120>
	asm volatile(LOCK_PREFIX "decl %0; sete %1"
    3910:	48 8b 45 c8          	mov    -0x38(%rbp),%rax
    3914:	f0 ff 08             	lock decl (%rax)
    3917:	0f 94 c0             	sete   %al
	if (atomic_dec_and_test(&c->refcnt))
    391a:	84 c0                	test   %al,%al
    391c:	75 5d                	jne    397b <l2cap_monitor_timeout+0x18b>
}
    391e:	48 83 c4 28          	add    $0x28,%rsp
    3922:	5b                   	pop    %rbx
    3923:	41 5c                	pop    %r12
    3925:	41 5d                	pop    %r13
    3927:	41 5e                	pop    %r14
    3929:	41 5f                	pop    %r15
    392b:	5d                   	pop    %rbp
    392c:	c3                   	retq   
    392d:	0f 1f 00             	nopl   (%rax)
	atomic_inc(&c->refcnt);
    3930:	49 8d 44 24 14       	lea    0x14(%r12),%rax
    3935:	48 89 45 c8          	mov    %rax,-0x38(%rbp)
	asm volatile(LOCK_PREFIX "incl %0"
    3939:	f0 41 ff 85 44 fe ff 	lock incl -0x1bc(%r13)
    3940:	ff 
    3941:	e9 3f ff ff ff       	jmpq   3885 <l2cap_monitor_timeout+0x95>
    3946:	66 2e 0f 1f 84 00 00 	nopw   %cs:0x0(%rax,%rax,1)
    394d:	00 00 00 
		l2cap_send_disconn_req(chan->conn, chan, ECONNABORTED);
    3950:	49 8b bd 38 fe ff ff 	mov    -0x1c8(%r13),%rdi
    3957:	ba 67 00 00 00       	mov    $0x67,%edx
    395c:	4c 89 e6             	mov    %r12,%rsi
    395f:	e8 9c ec ff ff       	callq  2600 <l2cap_send_disconn_req>
	mutex_unlock(&chan->lock);
    3964:	48 89 df             	mov    %rbx,%rdi
    3967:	e8 00 00 00 00       	callq  396c <l2cap_monitor_timeout+0x17c>
	asm volatile(LOCK_PREFIX "decl %0; sete %1"
    396c:	f0 41 ff 8d 44 fe ff 	lock decl -0x1bc(%r13)
    3973:	ff 
    3974:	0f 94 c0             	sete   %al
	if (atomic_dec_and_test(&c->refcnt))
    3977:	84 c0                	test   %al,%al
    3979:	74 a3                	je     391e <l2cap_monitor_timeout+0x12e>
		kfree(c);
    397b:	4c 89 e7             	mov    %r12,%rdi
